S'Joyce'
p1
.S'Carol'
p1
.S'Oates'
p1
.S'Eugene'
p1
.S'Delacroix'
p1
.S'Claude'
p1
.S'Lorraine'
p1
.S'Rembrandt'
p1
.S'Bela'
p1
.S'Mary'
p1
.S'Maksim'
p1
.S'Maksimovich'
p1
.S'Fred'
p1
.S'Vincy'
p1
.S'Mary'
p1
.S'Garth'
p1
.S'Lydgate'
p1
.S'Fred'
p1
.S'Rosamond'
p1
.S'Francesco'
p1
.S'Francia'
p1
.S'Piero'
p1
.S'Francesca'
p1
.S'Loggia'
p1
.S'Gabriel'
p1
.S'Francois'
p1
.S'Doyen'
p1
.S'Bon'
p1
.S'Bock'
p1
.S'Robert'
p1
.S'Henri'
p1
.S'Leonardo'
p1
.S'Bramante'
p1
.S'Cain'
p1
.S'Abel'
p1
.S'Eisenstein'
p1
.S'Muybridge'
p1
.S'Stein'
p1
.S'Audran'
p1
.S'Berain'
p1
.S'Josef'
p1
.S'Hoffmann'
p1
.S'Hoffmann'
p1
.S'Thomas'
p1
.S'Jefferson'
p1
.S'Celimene'
p1
.S'Giotto'
p1
.S'Peruzzi'
p1
.S'Napoleon'
p1
.S'Carle'
p1
.S'Vernet'
p1
.S'Pierre'
p1
.S'Guerin'
p1
.S'Filippo'
p1
.S'Benizzi'
p1
.S'Birth'
p1
.S'Venus'
p1
.S'Andre'
p1
.S'Malraux'
p1
.S'Andre'
p1
.S'Hermant'
p1
.S'Valentine'
p1
.S'Greene'
p1
.S'Hercules'
p1
.S'Brabazon'
p1
.S'Brabazon'
p1
.S'James'
p1
.S'Wilson'
p1
.S'Morrice'
p1
.S'Nicholas'
p1
.S'de'
p1
.S'Launay'
p1
.S'Anna'
p1
.S'Landolt'
p1
.S'Johann'
p1
.S'Casper'
p1
.S'Lavater'
p1
.S'William'
p1
.S'Collins'
p1
.S'Albert'
p1
.S'Stevens'
p1
.S'Michael'
p1
.S'Angelo'
p1
.S'Titmarsh'
p1
.S'Baron'
p1
.S'de'
p1
.S'Julien'
p1
.S'Muriel'
p1
.S'Belcher'
p1
.S'Luca'
p1
.S'Giordano'
p1
.S'Eric'
p1
.S'Avery'
p1
.S'Erasmus'
p1
.S'Darwin'
p1
.S'Charles'
p1
.S'Nodier'
p1
.S'Raymond'
p1
.S'Geselbracht'
p1
.S'Anna'
p1
.S'Ernest'
p1
.S'Chesneau'
p1
.S'Charles'
p1
.S'Lamb'
p1
.S'John'
p1
.S'Webster'
p1
.S'Ben'
p1
.S'Jonson'
p1
.S'Joseph'
p1
.S'Blackburn'
p1
.S'Elizabeth'
p1
.S'Peters'
p1
.S'Albert'
p1
.S'Hunold'
p1
.S'John'
p1
.S'Hales'
p1
.S'Giovanni'
p1
.S'Rost'
p1
.S'Erwin'
p1
.S'Panofsky'
p1
.S'Moses'
p1
.S'Margaret'
p1
.S'Jarman'
p1
.S'Hagood'
p1
.S'Pierre'
p1
.S'Loti'
p1
.S'Carel'
p1
.S'van'
p1
.S'Mander'
p1
.S'Francis'
p1
.S'Karl'
p1
.S'Fischer'
p1
.S'Carson'
p1
.S'McCullers'
p1
.S'Swedenborg'
p1
.S'Cain'
p1
.S'Abel'
p1
.S'Cain'
p1
.S'Moses'
p1
.S'Sybil'
p1
.S'Valentine'
p1
.S'Greene'
p1
.S'Pizarro'
p1
.S'Visconti'
p1
.S'Nietzsche'
p1
.S'Paul'
p1
.S'V'
.S'Nach'
p1
.S'Unterdruckung'
p1
.S'Fuchs'
p1
.S'Czerny'
p1
.S'Antonio'
p1
.S'Salieri'
p1
.S'Theophile'
p1
.S'Gautier'
p1
.S'Heinrich'
p1
.S'Heine'
p1
.S'Adolphe'
p1
.S'Adam'
p1
.S'Paul'
p1
.S'Whiteman'
p1
.S'Mozart'
p1
.S'Haydn'
p1
.S'Housman'
p1
.S'Hopkins'
p1
.S'Yeats'
p1
.S'Stephens'
p1
.S'James'
p1
.S'Joyce'
p1
.S'Ludovic'
p1
.S'Halevy'
p1
.S'Meilhac'
p1
.S'Mrs'
p1
.S'Shepherd'
p1
.S'Christopher'
p1
.S'Knowles'
p1
.S'Alfonso'
p1
.S'Estrella'
p1
.S'Beni'
p1
.S'Mora'
p1
.S'Keats'
p1
.S'Juditha'
p1
.S'Traum'
p1
.S'James'
p1
.S'Agee'
p1
.S'Alfonso'
p1
.S'Estrella'
p1
.S'Richard'
p1
.S'Wagner'
p1
.S'Ottavio'
p1
.S'Gloria'
p1
.S"'"
.S'Egitto'
p1
.S'Jean'
p1
.S'Paul'
p1
.S'David'
p1
.S'Peter'
p1
.S'Pears'
p1
.S'Ross'
p1
.S'Gorman'
p1
.S'Arianna'
p1
.S'Glinka'
p1
.S'Rossini'
p1
.S'Carl'
p1
.S'Czerny'
p1
.S'Vienna'
p1
.S'Ferdinando'
p1
.S'Paer'
p1
.S'Anton'
p1
.S'Reicha'
p1
.S'Christopher'
p1
.S'Knowles'
p1
.S'Robert'
p1
.S'Wilson'
p1
.S'Rimsky'
p1
.S'Korsakoff'
p1
.S'Gabriel'
p1
.S'Faure'
p1
.S'Ernestine'
p1
.S'von'
p1
.S'Fricken'
p1
.S'Murray'
p1
.S'Ivan'
p1
.S'Ferruccio'
p1
.S'Busoni'
p1
.S'Jean'
p1
.S'Claude'
p1
.S'Malgoire'
p1
.S'Jeanne'
p1
.S'Behrend'
p1
.S'Weber'
p1
.S'Ernani'
p1
.S'Norma'
p1
.S'Beethoven'
p1
.S'Beethoven'
p1
.S'Haruki'
p1
.S'Murakami'
p1
.S'Michael'
p1
.S'Marissen'
p1
.S'Estro'
p1
.S'Armonico'
p1
.S'Giovanna'
p1
.S'Walter'
p1
.S'Mald'
p1
.S'Thorton'
p1
.S'Wilder'
p1
.S'Bayard'
p1
.S'Gaston'
p1
.S'John'
p1
.S'Adams'
p1
.S'Tancredi'
p1
.S'Clorinda'
p1
.S'George'
p1
.S'Benda'
p1
.S'Daniel'
p1
.S'Steibelt'
p1
.S'Gazzaniga'
p1
.S'King'
p1
.S'Thule'
p1
.S'Don'
p1
.S'Rodrigue'
p1
.S'Ivan'
p1
.S'Terrible'
p1
.S'Ludvig'
p1
.S'Lindeman'
p1
.S'Duke'
p1
.S'Robert'
p1
.S'Oscar'
p1
.S'Pettiford'
p1
.S'Dizzy'
p1
.S'Gillespie'
p1
.S'Charlie'
p1
.S'Parker'
p1
.S'Bud'
p1
.S'Powell'
p1
.S'Max'
p1
.S'Roach'
p1
.S'Massey'
p1
.S'Hall'
p1
.S'Philipp'
p1
.S'Buchner'
p1
.S'Giovanni'
p1
.S'Legrenzi'
p1
.S'Feuerbach'
p1
.S'Signore'
p1
.S'Regina'
p1
.S'Coeli'
p1
.S'Laudate'
p1
.S'Dominum'
p1
.S'Pezzo'
p1
.S'Elegiaco'
p1
.S'Tancredi'
p1
.S'Clorinda'
p1
.S'Joyce'
p1
.S'Robert'
p1
.S'Graves'
p1
.S'Robert'
p1
.S'Browning'
p1
.S'Bach'
p1
.S'Nach'
p1
.S'dir'
p1
.S'Herr'
p1
.S'Luth'
p1
.S'William'
p1
.S'Macready'
p1
.S'Gismond'
p1
.S'Beckett'
p1
.S'Muzio'
p1
.S'Clementi'
p1
.S'Genoveva'
p1
.S'Vicente'
p1
.S'Martin'
p1
.S'y'
.S'Soler'
p1
.S'Giuseppi'
p1
.S'Sarti'
p1
.S'Rosalie'
p1
.S'Mayrhofer'
p1
.S'William'
p1
.S'Walton'
p1
.S'Catherine'
p1
.S'Peter'
p1
.S'Great'
p1
.S'David'
p1
.S'Humphreys'
p1
.S'Philip'
p1
.S'Pickett'
p1
.S'Gary'
p1
.S'Karr'
p1
.S'Elliott'
p1
.S'Antokoletz'
p1
.S'Marcel'
p1
.S'Moyse'
p1
.S'Messaien'
p1
.S'Johann'
p1
.S'Strauss'
p1
.S'Anthony'
p1
.S'Abbot'
p1
.S'Jerome'
p1
.S'Harvard'
p1
.S'Marcel'
p1
.S'Breuer'
p1
.S'Henry'
p1
.S'Russell'
p1
.S'Hitchcock'
p1
.S'Cicero'
p1
.S'Nikolaus'
p1
.S'Hagnower'
p1
.S'Nathaniel'
p1
.S'Kahn'
p1
.S'John'
p1
.S'Baptist'
p1
.S'Matthew'
p1
.S'Stephen'
p1
.S'Or'
p1
.S'Roger'
p1
.S'Bissi'
p1
.S'Raymond'
p1
.S'Duchamp'
p1
.S'Villon'
p1
.S'Imogen'
p1
.S'Cunningham'
p1
.S'Willard'
p1
.S'Van'
p1
.S'Dyke'
p1
.S'Isamu'
p1
.S'Noguchi'
p1
.S'Paul'
p1
.S'V'
.S'Isamu'
p1
.S'Noguchi'
p1
.S'Riehen'
p1
.S'John'
p1
.S'Evangelist'
p1
.S'Lucrezia'
p1
.S'Donati'
p1
.S'Primrose'
p1
.S'James'
p1
.S'Madison'
p1
.S'Alexander'
p1
.S'Hamilton'
p1
.S'David'
p1
.S'Walsh'
p1
.S'David'
p1
.S'Bradford'
p1
.S'John'
p1
.S'Mitchell'
p1
.S'Meredith'
p1
.S'Nicholson'
p1
.S'Carolyn'
p1
.S'Wells'
p1
.S'John'
p1
.S'Ericsson'
p1
.S'Sweden'
p1
.S'Amos'
p1
.S'Durfee'
p1
.S'Robert'
p1
.S'Peel'
p1
.S'Weiser'
p1
.S'Payette'
p1
.S'Malheur'
p1
.S'Seth'
p1
.S'Warner'
p1
.S'John'
p1
.S'Stark'
p1
.S'Jackson'
p1
.S'William'
p1
.S'Mooney'
p1
.S'Albert'
p1
.S'Parsons'
p1
.S'George'
p1
.S'Engel'
p1
.S'Adolph'
p1
.S'Fischer'
p1
.S'Louis'
p1
.S'Lingg'
p1
.S'Albert'
p1
.S'Parsons'
p1
.S'Lewis'
p1
.S'Lingg'
p1
.S'John'
p1
.S'Neville'
p1
.S'Oliver'
p1
.S'Miller'
p1
.S'William'
p1
.S'Lyon'
p1
.S'Mackenzie'
p1
.S'Biddle'
p1
.S'Joseph'
p1
.S'Gary'
p1
.S'Matthew'
p1
.S'Davis'
p1
.S'Martling'
p1
.S'Seth'
p1
.S'Warner'
p1
.S'John'
p1
.S'Stark'
p1
.S'Simon'
p1
.S'Cameron'
p1
.S'Don'
p1
.S'Peter'
p1
.S'Soule'
p1
.S'William'
p1
.S'Cullen'
p1
.S'Bryant'
p1
.S'Langston'
p1
.S'Hughes'
p1
.S'Vachel'
p1
.S'Lindsay'
p1
.S'Murchison'
p1
.S'Jonas'
p1
.S'Fay'
p1
.S'Thomas'
p1
.S'Chittenden'
p1
.S'Robinson'
p1
.S'Celler'
p1
.S'James'
p1
.S'Ewing'
p1
.S'Simon'
p1
.S'Fraser'
p1
.S'George'
p1
.S'Custer'
p1
.S'William'
p1
.S'Chandler'
p1
.S'Ray'
p1
.S'Evans'
p1
.S'Jay'
p1
.S'Livingston'
p1
.S'Carey'
p1
.S'George'
p1
.S'Croghan'
p1
.S'Oliver'
p1
.S'Miller'
p1
.S'John'
p1
.S'Neville'
p1
.S'Celler'
p1
.S'Hannegan'
p1
.S'Nicholson'
p1
.S'Dan'
p1
.S'Sickles'
p1
.S'Catherine'
p1
.S'Furnace'
p1
.S'John'
p1
.S'Holmes'
p1
.S'Henry'
p1
.S'Homespun'
p1
.S'Solomon'
p1
.S'Southwick'
p1
.S'Timothy'
p1
.S'Pilsbury'
p1
.S'Thomas'
p1
.S'Jefferson'
p1
.S'Rusk'
p1
.S'Preston'
p1
.S'King'
p1
.S'William'
p1
.S'Alexander'
p1
.S'Lord'
p1
.S'Stirling'
p1
.S'Ralph'
p1
.S'Korngold'
p1
.S'Samuel'
p1
.S'Fielden'
p1
.S'John'
p1
.S'Greenleaf'
p1
.S'Whittier'
p1
.S'William'
p1
.S'Lloyd'
p1
.S'Garrison'
p1
.S'Arthur'
p1
.S'Tappan'
p1
.S'Jennings'
p1
.S'Charles'
p1
.S'Sumner'
p1
.S'Andrew'
p1
.S'Carnegie'
p1
.S'Alexander'
p1
.S'Berkman'
p1
.S'George'
p1
.S'Stoneman'
p1
.S'William'
p1
.S'Van'
p1
.S'Ness'
p1
.S'Duncan'
p1
.S'McArthur'
p1
.S'Johnson'
p1
.S'John'
p1
.S'Rutledge'
p1
.S'Albert'
p1
.S'Gallatin'
p1
.S'Hugh'
p1
.S'Henry'
p1
.S'Brackenridge'
p1
.S'William'
p1
.S'Bradford'
p1
.S'James'
p1
.S'Ross'
p1
.S'Jasper'
p1
.S'Yeates'
p1
.S'Josiah'
p1
.S'Winslow'
p1
.S'Pomham'
p1
.S'Joseph'
p1
.S'Jones'
p1
.S'Louis'
p1
.S'Nicola'
p1
.S'John'
p1
.S'Kelly'
p1
.S'Wilkie'
p1
.S'Collins'
p1
.S'George'
p1
.S'Meredith'
p1
.S'???'
p1
.S'Francis'
p1
.S'Walter'
p1
.S'Scott'
p1
.S'Shepherd'
p1
.S'Kings'
p1
.S'Jatai'
p1
.S'Uqsur'
p1
.S'Seqenere'
p1
.S'III'
p1
.S'Cornelius'
p1
.S'Nepos'
p1
.S'John'
p1
.S'Nefastis'
p1
.S'Maxwell'
p1
.S'Manetho'
p1
.S'Stratton'
p1
.S'Rayleigh'
p1
.S'Sommerfeld'
p1
.S'Aeneas'
p1
.S'Virgil'
p1
.S'Maromokotro'
p1
.S'George'
p1
.S'Selwin'
p1
.S'Acta'
p1
.S'Sheffer'
p1
.S'Bela'
p1
.S'Lycurgus'
p1
.S'Megacles'
p1
.S'Mrs'
p1
.S'Andrea'
p1
.S'Danzi'
p1
.S'Chopin'
p1
.S'Carystus'
p1
.S'Eretria'
p1
.S'Barlas'
p1
.S'Ilyas'
p1
.S'Khoja'
p1
.S'Joyce'
p1
.S'Carol'
p1
.S'Oates'
p1
.S'Eugene'
p1
.S'Delacroix'
p1
.S'Claude'
p1
.S'Lorraine'
p1
.S'Rembrandt'
p1
.