S'Joyce'
p1
.S'Carol'
p1
.S'Oates'
p1
.S'Eugene'
p1
.S'Delacroix'
p1
.S'Joyce'
p1
.S'Carol'
p1
.S'Oates'
p1
.S'Eugene'
p1
.S'Delacroix'
p1
.S'Claude'
p1
.S'Lorraine'
p1
.S'Rembrandt'
p1
.S'Bela'
p1
.S'Mary'
p1
.S'Maksim'
p1
.S'Maksimovich'
p1
.