S'Joyce'
p1
.S'Carol'
p1
.S'Oates'
p1
.S'Eugene'
p1
.S'Delacroix'
p1
.S'Claude'
p1
.S'Lorraine'
p1
.S'Bela'
p1
.S'Mary'
p1
.S'Maksim'
p1
.S'Maksimovich'
p1
.S'Fred'
p1
.S'Vincy'
p1
.S'Mary'
p1
.S'Garth'
p1
.S'Lydgate'
p1
.S'Fred'
p1
.S'Rosamond'
p1
.S'Francesco'
p1
.S'Francia'
p1
.S'Francesca'
p1
.S'S.'
p1
.S'Sulpice'
p1
.S'Bridget'
p1
.S'Gabriel-Francois'
p1
.S'Doyen'
p1
.S'Bon'
p1
.S'Bock'
p1
.S'Robert'
p1
.S'Henri'
p1
.S'Bramante'
p1
.S'Peter'
p1
.S'Eisenstein'
p1
.S'Stein'
p1
.S'Etienne'
p1
.S'Falconet'
p1
.S'Berain'
p1
.S'Durieu'
p1
.S'Josef'
p1
.S'Hoffmann'
p1
.S'Hoffmann'
p1
.S'Thomas'
p1
.S'Jefferson'
p1
.S'Herbert'
p1
.S'Pocket'
p1
.S'Compeyson'
p1
.S'Celimene'
p1
.S'Napoleon'
p1
.S'Carle'
p1
.S'Vernet'
p1
.S'Pierre'
p1
.S'Guerin'
p1
.S'Filippo'
p1
.S'Benizzi'
p1
.S'Peter'
p1
.S'Cassiano'
p1
.S'Pozzo'
p1
.S'Andre'
p1
.S'Malraux'
p1
.S'Andre'
p1
.S'Hermant'
p1
.S'Valentine'
p1
.S'Greene'
p1
.S'Jerome'
p1
.S'Zelotti'
p1
.S'Hercules'
p1
.S'Brabazon'
p1
.S'Brabazon'
p1
.S'James'
p1
.S'Wilson'
p1
.S'Morrice'
p1
.S'Nicholas'
p1
.S'de'
p1
.S'Launay'
p1
.S'Anna'
p1
.S'Landolt'
p1
.S'Johann'
p1
.S'Casper'
p1
.S'Lavater'
p1
.S'William'
p1
.S'Collins'
p1
.S'Albert'
p1
.S'Stevens'
p1
.S'Michael'
p1
.S'Angelo'
p1
.S'Titmarsh'
p1
.S'Diana'
p1
.S'Baron'
p1
.S'de'
p1
.S'Julien'
p1
.S'Muriel'
p1
.S'Belcher'
p1
.S'Luca'
p1
.S'Giordano'
p1
.S'Eric'
p1
.S'Avery'
p1
.S'Erasmus'
p1
.S'Darwin'
p1
.S'Charles'
p1
.S'Nodier'
p1
.S'Raymond'
p1
.S'Geselbracht'
p1
.S'Ernest'
p1
.S'Chesneau'
p1
.S'T.J.'
p1
.S'Clark'
p1
.S'Charles'
p1
.S'Lamb'
p1
.S'John'
p1
.S'Webster'
p1
.S'Ben'
p1
.S'Jonson'
p1
.S'Joseph'
p1
.S'Blackburn'
p1
.S'James'
p1
.S'Russell'
p1
.S'Katherine'
p1
.S'Graves'
p1
.S'Thomas'
p1
.S'Boylston'
p1
.S'Samuel'
p1
.S'Adams'
p1
.S'Elizabeth'
p1
.S'Peters'
p1
.S'Albert'
p1
.S'Hunold'
p1
.S'Georgiana'
p1
.S'John'
p1
.S'Hales'
p1
.S'Hales'
p1
.S'Giovanni'
p1
.S'Rost'
p1
.S'Erwin'
p1
.S'Panofsky'
p1
.S'Moses'
p1
.S'Margaret'
p1
.S'Jarman'
p1
.S'Hagood'
p1
.S'Clarence'
p1
.S'H.'
p1
.S'White'
p1
.S'Pierre'
p1
.S'Loti'
p1
.S'Carel'
p1
.S'van'
p1
.S'Mander'
p1
.S'Francis'
p1
.S'Karl'
p1
.S'Fischer'
p1
.S'Brook'
p1
.S'Swedenborg'
p1
.S'Cain'
p1
.S'Cain'
p1
.S'Pirkle'
p1
.S'Jones'
p1
.S'Moses'
p1
.S'Sybil'
p1
.S'Valentine'
p1
.S'Greene'
p1
.S'Pizarro'
p1
.S'Paul'
p1
.S'V'
.S'Francesco'
p1
.S'West'
p1
.S'Nach'
p1
.S'Unterdruckung'
p1
.S'Fuchs'
p1
.S'Relache'
p1
.S'Czerny'
p1
.S'Antonio'
p1
.S'Salieri'
p1
.S'Theophile'
p1
.S'Gautier'
p1
.S'Heinrich'
p1
.S'Heine'
p1
.S'Adolphe'
p1
.S'Adam'
p1
.S'Paul'
p1
.S'Whiteman'
p1
.S'Gesellen'
p1
.S'Mozart'
p1
.S'Haydn'
p1
.S'Housman'
p1
.S'Hopkins'
p1
.S'Yeats'
p1
.S'Stephens'
p1
.S'James'
p1
.S'Joyce'
p1
.S'Ludovic'
p1
.S'Halevy'
p1
.S'Meilhac'
p1
.S'Hector'
p1
.S'Hushabye'
p1
.S'Christopher'
p1
.S'Knowles'
p1
.S'Beni'
p1
.S'Mora'
p1
.S'Keats'
p1
.S'James'
p1
.S'Agee'
p1
.S'Richard'
p1
.S'Wagner'
p1
.S'Ottavio'
p1
.S'Gloria'
p1
.S'Egitto'
p1
.S'Jean'
p1
.S'Paul'
p1
.S'David'
p1
.S'Gott'
p1
.S'Peter'
p1
.S'Pears'
p1
.S'Ross'
p1
.S'Gorman'
p1
.S'Arianna'
p1
.S'Glinka'
p1
.S'Rossini'
p1
.S'Carl'
p1
.S'Czerny'
p1
.S'Ferdinando'
p1
.S'Paer'
p1
.S'Anton'
p1
.S'Reicha'
p1
.S'Christopher'
p1
.S'Knowles'
p1
.S'Robert'
p1
.S'Wilson'
p1
.S'Gabriel'
p1
.S'Faure'
p1
.S'Ernestine'
p1
.S'von'
p1
.S'Fricken'
p1
.S'Murray'
p1
.S'Annibale'
p1
.S'Pistacchio'
p1
.S'Enrico'
p1
.S'Ferruccio'
p1
.S'Busoni'
p1
.S'Jean-Claude'
p1
.S'Malgoire'
p1
.S'Jeanne'
p1
.S'Behrend'
p1
.S'Weber'
p1
.S'Ernani'
p1
.S'Norma'
p1
.S'Antonio'
p1
.S'Bazzini'
p1
.S'Haruki'
p1
.S'Murakami'
p1
.S'Michael'
p1
.S'Marissen'
p1
.S"L'Estro"
p1
.S'Armonico'
p1
.S'Giovanna'
p1
.S'Walter'
p1
.S'Mald'
p1
.S'Thorton'
p1
.S'Wilder'
p1
.S'Bayard'
p1
.S'Gaston'
p1
.S'?'
.S'John'
p1
.S'Adams'
p1
.S'Clorinda'
p1
.S'Laura'
p1
.S'George'
p1
.S'Benda'
p1
.S'Berlioz'
p1
.S'Daniel'
p1
.S'Steibelt'
p1
.S'Gazzaniga'
p1
.S'Don'
p1
.S'Rodrigue'
p1
.S'Ludvig'
p1
.S'Lindeman'
p1
.S'Duke'
p1
.S'Robert'
p1
.S'Oscar'
p1
.S'Pettiford'
p1
.S'Dizzy'
p1
.S'Gillespie'
p1
.S'Charlie'
p1
.S'Parker'
p1
.S'Bud'
p1
.S'Powell'
p1
.S'Max'
p1
.S'Roach'
p1
.S'Philipp'
p1
.S'Buchner'
p1
.S'Feuerbach'
p1
.S'Signore'
p1
.S'Regina'
p1
.S'Coeli'
p1
.S'Clorinda'
p1
.S'Joyce'
p1
.S'Robert'
p1
.S'Graves'
p1
.S'John'
p1
.S'Rivers'
p1
.S'Robert'
p1
.S'Browning'
p1
.S'Bach'
p1
.S'Nach'
p1
.S'dir'
p1
.S'Herr'
p1
.S'Mimi'
p1
.S'Jean'
p1
.S'Godebski'
p1
.S'William'
p1
.S'Macready'
p1
.S'Beckett'
p1
.S'Muzio'
p1
.S'Clementi'
p1
.S'Genoveva'
p1
.S'Giuseppi'
p1
.S'Sarti'
p1
.S'Rosalie'
p1
.S'Mayrhofer'
p1
.S'William'
p1
.S'Walton'
p1
.S'Catherine'
p1
.S'Peter'
p1
.S'the'
p1
.S'Great'
p1
.S'David'
p1
.S'Humphreys'
p1
.S'Philip'
p1
.S'Pickett'
p1
.S'Gary'
p1
.S'Karr'
p1
.S'Elliott'
p1
.S'Antokoletz'
p1
.S'Marcel'
p1
.S'Moyse'
p1
.S'Messaien'
p1
.S'Johann'
p1
.S'Strauss'
p1
.S'Samuel'
p1
.S'Morse'
p1
.S'Ezra'
p1
.S'Stiles'
p1
.S'Anthony'
p1
.S'Abbot'
p1
.S'Jerome'
p1
.S'Marcel'
p1
.S'Breuer'
p1
.S'Cicero'
p1
.S'Phyrne'
p1
.S'Nikolaus'
p1
.S'Hagnower'
p1
.S'Nathaniel'
p1
.S'Kahn'
p1
.S'John'
p1
.S'the'
p1
.S'Baptist'
p1
.S'Matthew'
p1
.S'Stephen'
p1
.S'Roger'
p1
.S'Bissi?re'
p1
.S'Jasper'
p1
.S'Johns'
p1
.S'Darius'
p1
.S'King'
p1
.S'Matthias'
p1
.S'Corvinus'
p1
.S'Raymond'
p1
.S'Duchamp-Villon'
p1
.S'Clarence'
p1
.S'White'
p1
.S'Imogen'
p1
.S'Cunningham'
p1
.S'Isamu'
p1
.S'Noguchi'
p1
.S'Paul'
p1
.S'V'
.S'Isamu'
p1
.S'Noguchi'
p1
.S'Danaide'
p1
.S'Lorenzo'
p1
.S'Ghiberti'
p1
.S'Nikias'
p1
.S'Lucrezia'
p1
.S'Donati'
p1
.S'James'
p1
.S'Madison'
p1
.S'Alexander'
p1
.S'Hamilton'
p1
.S'David'
p1
.S'Walsh'
p1
.S'David'
p1
.S'Bradford'
p1
.S'John'
p1
.S'Mitchell'
p1
.S'Meredith'
p1
.S'Nicholson'
p1
.S'Carolyn'
p1
.S'Wells'
p1
.S'John'
p1
.S'Ericsson'
p1
.S'Amos'
p1
.S'Durfee'
p1
.S'Robert'
p1
.S'Peel'
p1
.S'Weiser'
p1
.S'Payette'
p1
.S'Seth'
p1
.S'Warner'
p1
.S'John'
p1
.S'Stark'
p1
.S'Luther'
p1
.S'v.'
p1
.S'Borden'
p1
.S'Jackson'
p1
.S'William'
p1
.S'Mooney'
p1
.S'Albert'
p1
.S'Parsons'
p1
.S'George'
p1
.S'Engel'
p1
.S'Adolph'
p1
.S'Fischer'
p1
.S'Louis'
p1
.S'Lingg'
p1
.S'Albert'
p1
.S'Parsons'
p1
.S'Lewis'
p1
.S'Lingg'
p1
.S'Jefferson'
p1
.S'Davis'
p1
.S'John'
p1
.S'Neville'
p1
.S'Oliver'
p1
.S'Miller'
p1
.S'William'
p1
.S'Lyon'
p1
.S'Mackenzie'
p1
.S'Biddle'
p1
.S'Joseph'
p1
.S'Gary'
p1
.S'Matthew'
p1
.S'Davis'
p1
.S'Seth'
p1
.S'Warner'
p1
.S'John'
p1
.S'Stark'
p1
.S'Simon'
p1
.S'Cameron'
p1
.S'Peter'
p1
.S'Soule'
p1
.S'William'
p1
.S'Cullen'
p1
.S'Bryant'
p1
.S'Langston'
p1
.S'Hughes'
p1
.S'Vachel'
p1
.S'Lindsay'
p1
.S'Murchison'
p1
.S'Jonas'
p1
.S'Fay'
p1
.S'Thomas'
p1
.S'Chittenden'
p1
.S'James'
p1
.S'Ewing'
p1
.S'Breymann'
p1
.S'Redoubt'
p1
.S'Simon'
p1
.S'Fraser'
p1
.S'George'
p1
.S'Custer'
p1
.S'William'
p1
.S'A.'
p1
.S'Palmer'
p1
.S'Joseph'
p1
.S'Ritner'
p1
.S'William'
p1
.S'Chandler'
p1
.S'Ray'
p1
.S'Evans'
p1
.S'Jay'
p1
.S'Livingston'
p1
.S'Carey'
p1
.S'George'
p1
.S'Croghan'
p1
.S'Oliver'
p1
.S'Miller'
p1
.S'John'
p1
.S'Neville'
p1
.S'Hannegan'
p1
.S'Nicholson'
p1
.S'Oliver'
p1
.S'Howard'
p1
.S'Dan'
p1
.S'Sickles'
p1
.S'Catherine'
p1
.S'Furnace'
p1
.S'Albert'
p1
.S'Rust'
p1
.S'John'
p1
.S'Holmes'
p1
.S'Timothy'
p1
.S'Pilsbury'
p1
.S'Thomas'
p1
.S'Jefferson'
p1
.S'Rusk'
p1
.S'Preston'
p1
.S'King'
p1
.S'William'
p1
.S'Alexander'
p1
.S'Lord'
p1
.S'Stirling'
p1
.S'Balcarres'
p1
.S'Redoubt'
p1
.S'Gulian'
p1
.S'Verplanck'
p1
.S'Ralph'
p1
.S'Korngold'
p1
.S'Samuel'
p1
.S'Fielden'
p1
.S'John'
p1
.S'Greenleaf'
p1
.S'Whittier'
p1
.S'William'
p1
.S'Lloyd'
p1
.S'Garrison'
p1
.S'Arthur'
p1
.S'Tappan'
p1
.S'Glenn'
p1
.S'Charles'
p1
.S'Sumner'
p1
.S'Andrew'
p1
.S'Carnegie'
p1
.S'Alexander'
p1
.S'Berkman'
p1
.S'George'
p1
.S'Stoneman'
p1
.S'William'
p1
.S'Van'
p1
.S'Ness'
p1
.S'Duncan'
p1
.S'McArthur'
p1
.S'Johnson'
p1
.S'Osborn'
p1
.S'John'
p1
.S'Rutledge'
p1
.S'Albert'
p1
.S'Gallatin'
p1
.S'Hugh'
p1
.S'Henry'
p1
.S'Brackenridge'
p1
.S'William'
p1
.S'Bradford'
p1
.S'James'
p1
.S'Ross'
p1
.S'Jasper'
p1
.S'Yeates'
p1
.S'Garrison'
p1
.S'Josiah'
p1
.S'Winslow'
p1
.S'Joseph'
p1
.S'Jones'
p1
.S'Louis'
p1
.S'Nicola'
p1
.S'John'
p1
.S'Kelly'
p1
.S'Inc'
p1
.S'v.'
p1
.S'McQuillan'
p1
.S'Rice'
p1
.S'v.'
p1
.S'Norman'
p1
.S'Williams'
p1
.S'Wilkie'
p1
.S'Collins'
p1
.S'George'
p1
.S'Meredith'
p1
.S'???'
p1
.S'Francis'
p1
.S'J.G.'
p1
.S'Miller'
p1
.S'Mirabu'
p1
.S'Walter'
p1
.S'Scott'
p1
.S'Boniface'
p1
.S'Alcmaeonid'
p1
.S'Cornelius'
p1
.S'Nepos'
p1
.S'John'
p1
.S'Nefastis'
p1
.S'Manetho'
p1
.S'Alcmaeonid'
p1
.S'Aeneas'
p1
.S'Hersilia'
p1
.S'Alcmaeonid'
p1
.S'Lycomedea'
p1
.S'George'
p1
.S'Selwin'
p1
.S'Acta'
p1
.S'Hyrrokin'
p1
.S'Sheffer'
p1
.S'Bela'
p1
.S'Pardiggle'
p1
.S'Jenny'
p1
.S'Guppy'
p1
.S'Andrea'
p1
.S'Danzi'
p1
.S'Hajji'
p1
.S'Beg'
p1
.S'Ilyas'
p1
.S'Khoja'
p1
.S'Davidson'
p1
.S'Dryocephalai'
p1
.S'Road'
p1
.S'Murembwe'
p1
.S'Katharine'
p1
.S'Hepburn'
p1
.S'Margaret'
p1
.S'Kemble'
p1
.S'Gage'
p1
.S'Eddie'
p1
.S'Fislinger'
p1
.S'Myrrhina'
p1
.S'Hans'
p1
.S'Vaihinger'
p1
.S'Mari'
p1
.S'Djata'
p1
.S'Clazomenae'
p1
.S'Boleslaw'
p1
.S'III'
p1
.S'Robert'
p1
.S'J.'
p1
.S'Barro'
p1
.S'Thomas'
p1
.S'Scheff'
p1
.S'Polyakov'
p1
.S'Philip'
p1
.S'Beauchamp'
p1
.S'Orchomenos'
p1
.S'Crowell'
p1
.S'Rodgers'
p1
.S'Emilio'
p1
.S'James'
p1
.S'Cheetham'
p1
.S'Adams'
p1
.S'Alexander'
p1
.S'Roger'
p1
.S'Davies'
p1
.S'Alan'
p1
.S'Dressler'
p1
.S'Caporael'
p1
.S'Dilemna'
p1
.S'Karau'
p1
.S'W.O.'
p1
.S'Henderson'
p1
.S'Zang'
p1
.S'Tumb'
p1
.S'Tumb'
p1
.S'Shukri'
p1
.S'Pasha'
p1
.S'Vladimir'
p1
.S'Vazov'
p1
.S'Chapel'
p1
.S'Chancelade'
p1
.S'Roger'
p1
.S'Davies'
p1
.S'Alan'
p1
.S'Dressler'
p1
.S'Sigismund'
p1
.S'II'
p1
.S'Augustus'
p1
.S'Henry'
p1
.S'III'
p1
.S'John'
p1
.S'Emile'
p1
.S'Cottin'
p1
.S'Robert'
p1
.S'Orme'
p1
.S'Claude'
p1
.S'Monet'
p1
.S'John'
p1
.S'Tzimices'
p1
.S'Kermode'
p1
.S'Silvio'
p1
.S'Henry'
p1
.S'Adams'
p1
.S'Jane'
p1
.S'Austen'
p1
.S'Ferdinand'
p1
.S'Frobenius'
p1
.S'Augustus'
p1
.S'Conrad'
p1
.S'Clifford'
p1
.S'Martin'
p1
.S'Mervyn'
p1
.S'Paice'
p1
.S'Sutton'
p1
.S'Cheney'
p1
.S'Eotvos'
p1
.S'Lutzingen'
p1
.S'Suzette'
p1
.S'Recaredo'
p1
.S'Ludvik'
p1
.S'Vaculik'
p1
.S'Gustav'
p1
.S'Husak'
p1
.S'Vasuki'
p1
.S'Joachim'
p1
.S'I.'
p1
.S'Weakened'
p1
.S'Albert'
p1
.S'Alcibiades'
p1
.S'II'
p1
.S'Baron'
p1
.S'Michael'
p1
.S'von'
p1
.S'Melas'
p1
.S'Charles'
p1
.S'Mangin'
p1
.S'Tennyson'
p1
.S'Shaw'
p1
.S'John'
p1
.S'XII'
p1
.S'Leo'
p1
.S'VIII'
p1
.S'John'
p1
.S'Howard'
p1
.S'Metz'
p1
.S'Mike'
p1
.S'and'
p1
.S'Jan'
p1
.S'Eddie'
p1
.S'Frederick'
p1
.S'II'
p1
.S'Leonard'
p1
.S'Holmes'
p1
.S'John'
p1
.S'Carteret'
p1
.S'Adrian'
p1
.S'Adrian'
p1
.S'VI'
p1
.S'Charles'
p1
.S'Nnolim'
p1
.S'Metz'
p1
.S'John'
p1
.S'Howard'
p1
.S'Nicholas'
p1
.S'Margaret'
p1
.S'Mary'
p1
.S'Charles'
p1
.S'Richard'
p1
.S'Pigott'
p1
.S'Thomas'
p1
.S'Henry'
p1
.S'Burke'
p1
.S'Charles'
p1
.S'II'
p1
.S'Gaston'
p1
.S'Phoebus'
p1
.S'Meaux'
p1
.S'Etienne'
p1
.S'Marcel'
p1
.S'Johann'
p1
.S'Jean-Marie'
p1
.S'Guyau'
p1
.S'Jack'
p1
.S'Handicraft'
p1
.S'Nick'
p1
.S'Marrabone'
p1
.S'Alfred'
p1
.S'Goodricke'
p1
.S'Jane'
p1
.S'Gould'
p1
.S'Hester'
p1
.S'Pinhorn'
p1
.S'Anton'
p1
.S'Vowl'
p1
.S'Agnes'
p1
.S'Tokhtamysh'
p1
.S'Emir'
p1
.S'Mamay'
p1
.S'Mizra'
p1
.S'Damon'
p1
.S'Alexandrines'
p1
.S'Samuel'
p1
.S'Henzi'
p1
.S"O'Kane"
p1
.S'Moll'
p1
.S'Robbins'
p1
.S'Smiley'
p1
.S'Vivian'
p1
.S'Grey'
p1
.S'Richard'
p1
.S'II'
p1
.S'Weber'
p1
.S'Oberon'
p1
.S'Palach'
p1
.S'NAME'
p1
.S'Husak'
p1
.S'Oliver'
p1
.S'Wendell'
p1
.S'Holmes'
p1
.S'John'
p1
.S'Robert'
p1
.S'Kerr'
p1
.S'Harry'
p1
.S'Minowitz'
p1
.S'Pope'
p1
.S'Gregory'
p1
.S'V'
.S'Bruno'
p1
.S'Johnson'
p1
.S'John'
p1
.S'Dillon'
p1
.S'Lindsay'
p1
.S'Phillip'
p1
.S'Kearny'
p1
.S'Harrison'
p1
.S'Josef'
p1
.S'Lenart'
p1
.S'Howard'
p1
.S'Barker'
p1
.S'Verhansung'
p1
.S'Henry'
p1
.S'Emeric'
p1
.S'Bob'
p1
.S'Newhart'
p1
.S'Jack'
p1
.S'Riley'
p1
.S'Peter'
p1
.S'Bonerz'
p1
.S'Newhart'
p1
.S'Giovanni'
p1
.S'Caroli'
p1
.S'Bela'
p1
.S'Kun'
p1
.S'Eric'
p1
.S'II'
p1
.S'Priest-hater'
p1
.S'Henry'
p1
.S'de'
p1
.S'Bohun'
p1
.S'Bohun'
p1
.S'Ruth'
p1
.S'Madeleine'
p1
.S'Dobbs'
p1
.S'John'
p1
.S'Thomas'
p1
.S'Brunt'
p1
.S'Richard'
p1
.S'Tidd'
p1
.S'William'
p1
.S'Davidson'
p1
.S'Lothair'
p1
.S'Dick'
p1
.S'Powell'
p1
.S','
.S'Jr.'
p1
.S'William'
p1
.S'Eleanor'
p1
.S'Margaret'
p1
.S'Likedeelers'
p1
.S'John'
p1
.S'Morton'
p1
.S'Aulus'
p1
.S'Gabinius'
p1
.S'Ulrich'
p1
.S'von'
p1
.S'Jungingen'
p1
.S'Vandamme'
p1
.S'Berg'
p1
.S'Bernard'
p1
.S'Dubois-Lambert'
p1
.S"O'Reilly"
p1
.S'Felice'
p1
.S'Orsini'
p1
.S'Emmanuele'
p1
.S'Pesagno'
p1
.S'King'
p1
.S'Dinis'
p1
.S'Marschall'
p1
.S'Johann'
p1
.S'Patkul'
p1
.S'Vakhtang'
p1
.S'VI'
p1
.S'Janina'
p1
.S'Thomas'
p1
.S'Randolph'
p1
.S'Ourique'
p1
.S'Victor'
p1
.S'Haldin'
p1
.S'Klaus'
p1
.S'Stortebeker'
p1
.S'James'
p1
.S'White'
p1
.S'Walter'
p1
.S'Faber'
p1
.S'William'
p1
.S'Habakkuk'
p1
.S'Vicent'
p1
.S'Peris'
p1
.S'Niclaus'
p1
.S'Hagnower'
p1
.S'Toro'
p1
.S'Zambrano'
p1
.S'Charles'
p1
.S'Hare'
p1
.S'Rugen'
p1
.S'Owari'
p1
.S'Hilla'
p1
.S'Limann'
p1
.S'Jerry'
p1
.S'Rawlings'
p1
.S'Jose'
p1
.S'Vasconcelos'
p1
.S'Michael'
p1
.S'Robinson'
p1
.S'Kazan'
p1
.S'Benjamin'
p1
.S'Hawkins'
p1
.S'Peter'
p1
.S'McQueen'
p1
.S'William'
p1
.S'Weatherford'
p1
.S'Ely'
p1
.S'Gur-e'
p1
.S'Amir'
p1
.S'Amir'
p1
.S'Husayn'
p1
.S'Ilyas'
p1
.S'Khoja'
p1
.S'Lotharingia'
p1
.S'Darcy'
p1
.S'Thomas'
p1
.S'Howard'
p1
.S'Sarai'
p1
.S'Batu'
p1
.S'Sarai'
p1
.S'Berke'
p1
.S'Fulk'
p1
.S'Gonder'
p1
.S'Allada'
p1
.S'Korchin'
p1
.S'Juan'
p1
.S'Diaz'
p1
.S'de'
p1
.S'Solis'
p1
.S'Sebastian'
p1
.S'Cabot'
p1
.S'Gustavus'
p1
.S'Adolphus'
p1
.S'Whitfield'
p1
.S'Ana'
p1
.S'Pauker'
p1
.S'Francisco'
p1
.S'Miranda'
p1
.S'Gabriel'
p1
.S'Hanotaux'
p1
.S'Jean-Baptiste'
p1
.S'Marchand'
p1
.S'Anne'
p1
.S'Besant'
p1
.S'Volodia'
p1
.S'Teitelboim'
p1
.S'Blanco'
p1
.S'Delmore'
p1
.S'Schwartz'
p1
.S'Albert'
p1
.S'Einstein'
p1
.S'Socrates'
p1
.S'Needle'
p1
.S'Nugent'
p1
.S'Augustino'
p1
.S'Barbarigo'
p1
.S'Ignacio'
p1
.S'Comonfort'
p1
.S'George'
p1
.S'Payne'
p1
.S'Rainsford'
p1
.S'James'
p1
.S'Luke'
p1
.S'Kilpatrick'
p1
.S'Henry'
p1
.S'Maurer'
p1
.S'Frank'
p1
.S"O'Hara"
p1
.S'Larry'
p1
.S'River'
p1
.S'Dwight'
p1
.S'Eisenhower'
p1
.S'Tughlugh'
p1
.S'Kaya'
p1
.S'Maja'
p1
.S'Issachar'
p1
.S'J.'
p1
.S'Roberts'
p1
.S'Nicholas'
p1
.S'Bayley'
p1
.S'John'
p1
.S'Blaxland'
p1
.S'Richard'
p1
.S'Atkins'
p1
.S'Ferdinand'
p1
.S'Brooks'
p1
.S'Victor'
p1
.S'Prompt'
p1
.S'Parfait-Louis'
p1
.S'Monteil'
p1
.S'James'
p1
.S'Prendergast'
p1
.S'Clem'
p1
.S'Simich'
p1
.S'Weber'
p1
.S'Richard'
p1
.S'Knox'
p1
.S'Watson'
p1
.S'Agenor'
p1
.S'Lybie'
p1
.S'John'
p1
.S'Donne'
p1
.S'Benedict'
p1
.S'Arnold'
p1
.S'Duke'
p1
.S'Ullrich'
p1
.S'Eric'
p1
.S'II'
p1
.S'Calenberg'
p1
.S'Belisarius'
p1
.S'Gelimer'
p1
.S'Samuel'
p1
.S'Sharpe'
p1
.S'Omar'
p1
.S'Aqta'
p1
.S'Amir'
p1
.S'Husayn'
p1
.S'John'
p1
.S'Erekle'
p1
.S'II'
p1
.S'Dioscorus'
p1
.S'Leo'
p1
.S'Galois'
p1
.S'Gauss'
p1
.S'Nanda'
p1
.S'Shridaman'
p1
.S'Emil'
p1
.S'K?rner'
p1
.S'Saxon'
p1
.S'Hopkinson'
p1
.S'Hopkinson'
p1
.S'Kaidu'
p1
.S'Boord'
p1
.S'Barry'
p1
.S'Allen'
p1
.S'Agonglo'
p1
.S'Dogan'
p1
.S'Gur-e'
p1
.S'Amir'
p1
.S'Pinner'
p1
.S'Mitsunobu'
p1
.S'Joseph'
p1
.S'Francois'
p1
.S'Dupleix'
p1
.S'Seuss'
p1
.S'Seth'
p1
.S'Lowe'
p1
.S'Chehel'
p1
.S'Sotun'
p1
.S'Kopp'
p1
.S'Parker'
p1
.S'Finnegan'
p1
.S'Alvis'
p1
.S'Richard'
p1
.S'Turnbull'
p1
.S'John'
p1
.S'Dennis'
p1
.S'Charles'
p1
.S'de'
p1
.S'Thierry'
p1
.S'Karl'
p1
.S'Hediger'
p1
.S'Hermine'
p1
.S'Frymann'
p1
.S'Bernard'
p1
.S'Stiegler'
p1
.S'Benjamin'
p1
.S'Britten'
p1
.S'Johnston'
p1
.S'Smith'
p1
.S'Amasa'
p1
.S'Delano'
p1
.S'Reitz'
p1
.S'Nat'
p1
.S'Miller'
p1
.S'Richard'
p1
.S'Sid'
p1
.S'Davis'
p1
.S'Takeo'
p1
.S'Doi'
p1
.S'Buckner'
p1
.S'Trawick'
p1
.S'Donald'
p1
.S'Gallup'
p1
.S'Chris'
p1
.S'Christofferson'
p1
.S'Richard'
p1
.S'Wright'
p1
.S'Reginald'
p1
.S'Dyer'
p1
.S'Jamie'
p1
.S'Elvira'
p1
.S'Virginia'
p1
.S'Woolf'
p1
.S'Alma'
p1
.S'Mahler'
p1
.S'Tom'
p1
.S'Corey'
p1
.S'Irene'
p1
.S'Penelope'
p1
.S'Rachel'
p1
.S'Isadora'
p1
.S'Duncan'
p1
.S'Emily'
p1
.S'Dickinson'
p1
.S'Eberhard'
p1
.S'Hugh'
p1
.S'Henry'
p1
.S'Brackenridge'
p1
.S'T.'
p1
.S'Cruzi'
p1
.S'Frances'
p1
.S'Appleton'
p1
.S'Joseph'
p1
.S'McKenna'
p1
.S'William'
p1
.S'Day'
p1
.S'John'
p1
.S'Sherman'
p1
.S'Robert'
p1
.S'Saul'
p1
.S'Kripke'
p1
.S'V.K.'
p1
.S'Ratliff'
p1
.S'Pat'
p1
.S'Stamper'
p1
.S'Roy'
p1
.S'DeCarava'
p1
.S'Partridge'
p1
.S'Molly'
p1
.S'Seagrim'
p1
.S'Ruzicka'
p1
.S'Euler'
p1
.S'Legendre'
p1
.S'Peter'
p1
.S'Eriksson'
p1
.S'Carrie'
p1
.S'Fisher'
p1
.S'Joseph'
p1
.S'Hergesheimer'
p1
.S'Solomon'
p1
.S'Abel'
p1
.S'P.'
p1
.S'Upshur'
p1
.S'Gerhard'
p1
.S'Ertl'
p1
.S'Garcia'
p1
.S'Gonzales'
p1
.S'Albert'
p1
.S'Hunold'
p1
.S'Blanche'
p1
.S'Ingram'
p1
.S'Bessie'
p1
.S'Leaven'
p1
.S'Reed'
p1
.S'Mary'
p1
.S'Hervey'
p1
.S'Denver'
p1
.S'D.'
p1
.S'Doll'
p1
.S'Ed'
p1
.S'Dunkel'
p1
.S'Dowson'
p1
.S'Swinburne'
p1
.S'Howard'
p1
.S'Wagner'
p1
.S'Dave'
p1
.S'Singleton'
p1
.S'Dwight'
p1
.S'Macdonald'
p1
.S'Moses'
p1
.S'Ephraim'
p1
.S'Jenkinson'
p1
.S'Alcee'
p1
.S'Arobin'
p1
.S'Miguel'
p1
.S'Victor'
p1
.S'Walter'
p1
.S'Franz'
p1
.S'Sherlock'
p1
.S'Holmes'
p1
.S'Gamliel'
p1
.S'Smith'
p1
.S'John'
p1
.S'14:2'
p1
.S'Wordsworth'
p1
.S'Peter'
p1
.S'Sachsa'
p1
.S'Carroll'
p1
.S'Eventyr'
p1
.S'Stanley'
p1
.S'Edgar'
p1
.S'Hyman'
p1
.S'Tommie'
p1
.S'Suttree'
p1
.S'Bly'
p1
.S'Grose'
p1
.S'Mamai'
p1
.S'Emily'
p1
.S'Bronte'
p1
.S'Zeisel'
p1
.S'William'
p1
.S'Dean'
p1
.S'Howells'
p1
.S'Horace'
p1
.S'Scudder'
p1
.S'Varnum'
p1
.S'Ned'
p1
.S'Hale'
p1
.S'Tom'
p1
.S'Regan'
p1
.S'William'
p1
.S'Shaw'
p1
.S'Frances'
p1
.S'Appleton'
p1
.S'Katowice'
p1
.S'McEachern'
p1
.S'Bobbie'
p1
.S'Allen'
p1
.S'Dave'
p1
.S'Singleman'
p1
.S'Mary'
p1
.S'Turner'
p1
.S'Mariia'
p1
.S'Gorshenkova'
p1
.S'Leon'
p1
.S'Minkus'
p1
.S'Ferguson'
p1
.S'Miss'
p1
.S'Gage'
p1
.S'Ernest'
p1
.S'Everhard'
p1
.S'Kapustinskii'
p1
.S'Mendel'
p1
.S'Harvey'
p1
.S'Stone'
p1
.S'Fons'
p1
.S'Roy'
p1
.S'DeCarava'
p1
.S'Levi'
p1
.S'Blackwater'
p1
.S'Ernest'
p1
.S'Nelson'
p1
.S'Bowman'
p1
.S'Crenshaw'
p1
.S'George'
p1
.S'Eliot'
p1
.S'Chuck'
p1
.S'Tommy'
p1
.S'Trentino'
p1
.S'Zuse'
p1
.S'Fredkin'
p1
.S'Ackermann'
p1
.S'Kehr'
p1
.S'Chris'
p1
.S'Wright'
p1
.S'Nguyen'
p1
.S'Taylor'
p1
.S'Michel'
p1
.S'Mayor'
p1
.S'Adriano'
p1
.S'Meis'
p1
.S'Landau'
p1
.S'Abegg'
p1
.S'Variations'
p1
.S'Hanle'
p1
.S'Mitsunobu'
p1
.S'George'
p1
.S'Orwell'
p1
.S'Orwell'
p1
.S'Clifford'
p1
.S'Wunsch'
p1
.S'Howard'
p1
.S'Archie'
p1
.S'Romola'
p1
.S'Martin'
p1
.S'Adore'
p1
.S'Loomis'
p1
.S'April'
p1
.S'Twighlight'
p1
.S'Stella'
p1
.S'Pinye'
p1
.S'Salzman'
p1
.S'Adam'
p1
.S'Adam'
p1
.S'Moll'
p1
.S'Robbins'
p1
.S'Effie'
p1
.S'Bowen'
p1
.S'Imogene'
p1
.S'Graham'
p1
.S'Theodore'
p1
.S'Colville'
p1
.S'Shelby'
p1
.S'Eleanor'
p1
.S'Jane'
p1
.S'Grey'
p1
.S'Haldan'
p1
.S'Keffer'
p1
.S'Hartline'
p1
.S'Jack'
p1
.S'Chaim'
p1
.S'Potok'
p1
.S'Reuven'
p1
.S'Danny'
p1
.S'Greffi'
p1
.S'Ralph'
p1
.S'Simmons'
p1
.S'Delia'
p1
.S'Bacon'
p1
.S'Wordsworth'
p1
.S'Hiram'
p1
.S'Bobby'
p1
.S'Lee'
p1
.S'Glanville'
p1
.S'Charles'
p1
.S'Griffes'
p1
.S'Minerva'
p1
.S'Johnson'
p1
.S'Holsepp'
p1
.S'Travis'
p1
.S'Bogard'
p1
.S'David'
p1
.S'Jewitt'
p1
.S'Jane'
p1
.S'Luu'
p1
.S'Loveby'
p1
.S'Christopher'
p1
.S'Smart'
p1
.S'John'
p1
.S'Walker'
p1
.S'Morea'
p1
.S'Baugh'
p1
.S'Lien'
p1
.S'Chi'
p1
.S'Altangi'
p1
.S'Jacque'
p1
.S'Berke'
p1
.S'Roger'
p1
.S'Owen'
p1
.S'Clifford'
p1
.S'Geertz'
p1
.S'Claire'
p1
.S'Boltwood'
p1
.S'Edward'
p1
.S'Schwirtz'
p1
.S'Lenore'
p1
.S'Beadsman'
p1
.S'Rick'
p1
.S'Vigorous'
p1
.S'Edgar'
p1
.S'Atkins'
p1
.S'Teagarden'
p1
.S'Jasper'
p1
.S'Sammy'
p1
.S'Butts'
p1
.S'Ruby'
p1
.S'Fischer'
p1
.S'Richard'
p1
.S'Edward'
p1
.S'Schwirtz'
p1
.S'Walter'
p1
.S'Babson'
p1
.S'Frank'
p1
.S'Drummer'
p1
.S'Somers'
p1
.S'Yozip'
p1
.S'Bloom'
p1
.S'Lily'
p1
.S'Hirschorn'
p1
.S'Pinye'
p1
.S'Leo'
p1
.S'Finkle'
p1
.S'Stella'
p1
.S'Azarian'
p1
.S'Pepper'
p1
.S'Culla'
p1
.S'Rinthy'
p1
.S'Abnego'
p1
.S'Jones'
p1
.S'Cornelius'
p1
.S'Boyd'
p1
.S'Beaver'
p1
.S'Remedios'
p1
.S'Varo'
p1
.S'Bridget'
p1
.S'Cleo'
p1
.S'Bentham'
p1
.S'Harker'
p1
.S'Hugh'
p1
.S'Morgan'
p1
.S'Palmer'
p1
.S'Maxwell'
p1
.S'Anderson'
p1
.S'Kurt'
p1
.S'Weill'
p1
.S'Fatty'
p1
.S'Pfaff'
p1
.S'David'
p1
.S'Lynch'
p1
.S'Karl'
p1
.S'Popper'
p1
.S'Robert'
p1
.S'Bly'
p1
.S'Robert'
p1
.S'Francis'
p1
.S'Leo'
p1
.S'Connellan'
p1
.S'Clark'
p1
.S'Wright'
p1
.S'Middleton'
p1
.S'Alice'
p1
.S'Walker.It'
p1
.S'Jack'
p1
.S'Duluoz'
p1
.S'Jack'
p1
.S'Kerouac'
p1
.S'Philip'
p1
.S'Wakem'
p1
.S'Stephen'
p1
.S'Guest'
p1
.S'Tom'
p1
.S'Tennyson'
p1
.S'Gregory'
p1
.S'Solomon'
p1
.S'Victor'
p1
.S'Franz'
p1
.S'Damis'
p1
.S'Dorine'
p1
.S'Damis'
p1
.S'Damis'
p1
.S'Emily'
p1
.S'Quentin'
p1
.S'Kenneth'
p1
.S'Koch'
p1
.S'Martin'
p1
.S'Heidegger'
p1
.S'Eugene'
p1
.S'Fink'
p1
.S'Popper'
p1
.S'Mariequita'
p1
.S'Bert'
p1
.S'Elisa'
p1
.S'Schlesinger'
p1
.S'Wordsworth'
p1
.S'Gabriel'
p1
.S'Garcia'
p1
.S'Marquez'
p1
.S'Arkady'
p1
.S'Katya'
p1
.S'Odintsova'
p1
.S'George'
p1
.S'Eilert'
p1
.S'Wladyslaw'
p1
.S'Moes'
p1
.S'Carl'
p1
.S'Furtmuller'
p1
.S'Frau'
p1
.S'Hertha'
p1
.S'Koenig'
p1
.S'Rudolf'
p1
.S'Kassner'
p1
.S'Marie'
p1
.S'Susan'
p1
.S'Sontag'
p1
.S'Bonario'
p1
.S'Castrone'
p1
.S'David'
p1
.S'Baron'
p1
.S'Eleonara'
p1
.S'Duse'
p1
.S'Hugh'
p1
.S'Henry'
p1
.S'Brackenridge'
p1
.S'Fetter'
p1
.S'Benjamin'
p1
.S'Disraeli'
p1
.S'Myra'
p1
.S'Pitt'
p1
.S'Ferrars'
p1
.S'Walter'
p1
.S'Savage'
p1
.S'Landor'
p1
.S'Hortense'
p1
.S'Maria'
p1
.S'Manning'
p1
.S'Harold'
p1
.S'Skimpole'
p1
.S'Bernard'
p1
.S'O.'
p1
.S'Phinney'
p1
.S'Hubert'
p1
.S'Erik'
p1
.S'XIV'
p1
.S'Gustavus'
p1
.S'Vasa'
p1
.S'Elaine'
p1
.S'Boney'
p1
.S'Leishman'
p1
.S'Samuel'
p1
.S'Taylor'
p1
.S'Coleridge'
p1
.S'Tom'
p1
.S'Jones'
p1
.S'Peri'
p1
.S'Bathous'
p1
.S'Anthony'
p1
.S'Hecht'
p1
.S'Knoevanagel'
p1
.S'Evans'
p1
.S'Maiastra'
p1
.S'Joseph'
p1
.S'Cradock'
p1
.S'Alfred'
p1
.S'Phillips'
p1
.S'Jr.'
p1
.S'Polydore'
p1
.S'Sylvester'
p1
.S'Bonnard'
p1
.S'Reine'
p1
.S'Pedaque'
p1
.S'Jerome'
p1
.S'Goignard'
p1
.S'Charles'
p1
.S'II'
p1
.S'Nell'
p1
.S'Gwynne'
p1
.S'Kafka'
p1
.S'Broch'
p1
.S'Musil'
p1
.S'Gombrowicz'
p1
.S'Macey'
p1
.S'Martha'
p1
.S'Clifford'
p1
.S'Rosamond'
p1
.S'Vincy'
p1
.S'Lydgate'
p1
.S'Ian'
p1
.S'Clarke'
p1
.S'Fosco'
p1
.S'Percival'
p1
.S'Glyde'
p1
.S'Walter'
p1
.S'Hartright'
p1
.S'Marian'
p1
.S'Grannis'
p1
.S'Miss'
p1
.S'Baker'
p1
.S'Madame'
p1
.S'Kukshin'
p1
.S'Sitnikov'
p1
.S'Lorentz'
p1
.S'Veteris'
p1
.S'Vestigiae'
p1
.S'Flammae'
p1
.S'Charles'
p1
.S'Stanford'
p1
.S'Anfisa'
p1
.S'Whipple'
p1
.S'Gurian'
p1
.S'Tunggal'
p1
.S'Luci'
p1
.S'Clementi'
p1
.S'Jung'
p1
.S'Murphy'
p1
.S'Sidney'
p1
.S'Godolphin'
p1
.S'Mountstuart'
p1
.S'Jackson'
p1
.S'William'
p1
.S'Gass'
p1
.S'Henry'
p1
.S'Earl'
p1
.S'Pamela'
p1
.S'Bewick'
p1
.S'Eliza'
p1
.S'John'
p1
.S'Allan'
p1
.S'Woodcourt'
p1
.S'Ewald'
p1
.S'Akutagawa'
p1
.S'W.H.'
p1
.S'Auden'
p1
.S'William'
p1
.S'Empson'
p1
.S'Pamela'
p1
.S'Fiers'
p1
.S'Kondo'
p1
.S'Mark'
p1
.S'Liberman'
p1
.S'Jonathan'
p1
.S'Wallace'
p1
.S'Pierre'
p1
.S'Nicole'
p1
.S'Sarah'
p1
.S'Tansey'
p1
.S'Susan'
p1
.S'Brady'
p1
.S'Blake'
p1
.S'Jabez'
p1
.S'Branderham'
p1
.S'Sullen'
p1
.S'Negri'
p1
.S'Juan'
p1
.S'Diaz'
p1
.S'Dorothy'
p1
.S'Dingley'
p1
.S'Baron'
p1
.S'Yvor'
p1
.S'Winters'
p1
.S'Morton'
p1
.S'Zabel'
p1
.S'Moon'
p1
.S'Charles'
p1
.S'II'
p1
.S'Nell'
p1
.S'Gwynne'
p1
.S'Tench'
p1
.S'Joseph'
p1
.S'Short'
p1
.S'Heloise'
p1
.S'Dubuc'
p1
.S'Henslowe'
p1
.S'Jean'
p1
.S'Giradoux'
p1
.S'Lieb'
p1
.S'Yngvason'
p1
.S'Izaak'
p1
.S'Walton'
p1
.S'Diodorus'
p1
.S'Siculus'
p1
.S'Julius'
p1
.S'Caesar'
p1
.S'Mary'
p1
.S'Garth'
p1
.S'Featherstone'
p1
.S'Caleb'
p1
.S'Cottard'
p1
.S'Dennis'
p1
.S'William'
p1
.S'Bradshaw'
p1
.S'Evans'
p1
.S'Wilhelm'
p1
.S'Mrs'
p1
.S'Hodson'
p1
.S'Mary'
p1
.S'Jose'
p1
.S'Carrera'
p1
.S'Skiffins'
p1
.S'Wemmick'
p1
.S'Orlick'
p1
.S'Gerald'
p1
.S'Emerald'
p1
.S'Jack'
p1
.S'Grey'
p1
.S'Goldsworth'
p1
.S'Ivan'
p1
.S'Bezdomny'
p1
.S'Mathilde'
p1
.S'Gerard'
p1
.S'Manley'
p1
.S'Hopkins'
p1
.S'Seamus'
p1
.S'Heaney'
p1
.S'Augusta'
p1
.S'Hawkins'
p1
.S'Blake'
p1
.S'Gerard'
p1
.S'Duval'
p1
.S'Bonnie'
p1
.S'Dundee'
p1
.S'Henry'
p1
.S'James'
p1
.S'Walter'
p1
.S'Scott'
p1
.S'Paulette'
p1
.S'Goddard'
p1
.S'Henry'
p1
.S'James'
p1
.S'Charles'
p1
.S':'
.S'Duke'
p1
.S'Byron'
p1
.S'Ernest'
p1
.S'Barker'
p1
.S'Isaac'
p1
.S'Chang'
p1
.S'Principe'
p1
.S'Umberto'
p1
.S'Jerry'
p1
.S'Cruncher'
p1
.S'Kevin'
p1
.S'Iga'
p1
.S'Bismarck'
p1
.S'Torrismondo'
p1
.S'Aminta'
p1
.S'Spencer'
p1
.S'Sybil'
p1
.S'Carr'
p1
.S'Joseph'
p1
.S'Conrad'
p1
.S'Blankensee'
p1
.S'Dahm'
p1
.S'Scalapino'
p1
.S'Agassi'
p1
.S'Oates'
p1
.S'Binet'
p1
.S'Justin'
p1
.S'Leni'
p1
.S'Robert'
p1
.S'de'
p1
.S'Montesquiou'
p1
.S'Hugh'
p1
.S'Evans'
p1
.S'Jack'
p1
.S'Gershom'
p1
.S'Scholem'
p1
.S'Peter'
p1
.S'Venus'
p1
.S'Charles'
p1
.S'P.'
p1
.S'Jacobs'
p1
.S'Thomas'
p1
.S'Hardy'
p1
.S'Fred'
p1
.S'Akuffo'
p1
.S'Hilla'
p1
.S'Limann'
p1
.S'Cardinal'
p1
.S'Newman'
p1
.S'Adam'
p1
.S'and'
p1
.S'Hymen'
p1
.S'Coppo'
p1
.S'Frederick'
p1
.S'Carter'
p1
.S'Anna'
p1
.S'Sigismund'
p1
.S'Markus'
p1
.S'David'
p1
.S'Harville'
p1
.S'August'
p1
.S'Falck'
p1
.S'Francis'
p1
.S'Furini'
p1
.S'Christopher'
p1
.S'Smart'
p1
.S'Bernard'
p1
.S'de'
p1
.S'Mandeville'
p1
.S'Maxime'
p1
.S'Louise'
p1
.S'Colet'
p1
.S'Tom'
p1
.S'Hazelow'
p1
.S'Bill'
p1
.S'Downes'
p1
.S'Joshua'
p1
.S'Rann'
p1
.S'Mary'
p1
.S'Burge'
p1
.S'Hollatz'
p1
.S'Hornstetter'
p1
.S'Susi'
p1
.S'Kater'
p1
.S'Gretchen'
p1
.S'Scheffler'
p1
.S'Charles'
p1
.S'Lever'
p1
.S'Rex'
p1
.S'Mottram'
p1
.S'Julia'
p1
.S'Elizabeth'
p1
.S'Gould'
p1
.S'Charles'
p1
.S'Mansoori'
p1
.S'Macleod'
p1
.S'Anna'
p1
.S'Weamys'
p1
.S'Pitzer'
p1
.S'Davies'
p1
.S'Chabot'
p1
.S'James'
p1
.S'Shirley'
p1
.S'Andrew'
p1
.S'Prue'
p1
.S'Pryce'
p1
.S'George'
p1
.S'Bowling'
p1
.S'Mary'
p1
.S'Wroth'
p1
.S'David'
p1
.S'Garnett'
p1
.S'Joey'
p1
.S'Ruth'
p1
.S'Ruth'
p1
.S'John'
p1
.S'Pickard'
p1
.S'Owen'
p1
.S'Anderson'
p1
.S'John'
p1
.S'Rivers'
p1
.S'Mary'
p1
.S'Diana'
p1
.S'Woody'
p1
.S'Allen'
p1
.S'Kugelmass'
p1
.S'Episode'
p1
.S'Haruki'
p1
.S'Murakami'
p1
.S'Glumdalclitch'
p1
.S'George'
p1
.S'Sandys'
p1
.S'I.'
p1
.S'A.'
p1
.S'Richards'
p1
.S'Richards'
p1
.S'Richard'
p1
.S'Howard'
p1
.S'Nikolaus'
p1
.S'Mardruz'
p1
.S'Camilla'
p1
.S'Selden'
p1
.S'Christoph'
p1
.S'Nicolai'
p1
.S'Tom'
p1
.S'Gert'
p1
.S'Berta'
p1
.S'Glynn'
p1
.S'John'
p1
.S'Randall'
p1
.S'Paulette'
p1
.S'Goddard'
p1
.S'Thomas'
p1
.S'Corneille'
p1
.S'Edwin'
p1
.S'Saxena'
p1
.S'Uncle'
p1
.S'Minai'
p1
.S'Thomas'
p1
.S'Nashe'
p1
.S'Talbot'
p1
.S'Villuppo'
p1
.S'Alexandro'
p1
.S'Villuppo'
p1
.S'Apthorpe'
p1
.S'Cleanth'
p1
.S'Brooks'
p1
.S'William'
p1
.S'Faulkner'
p1
.S'Joyce'
p1
.S'Carol'
p1
.S'Oates'
p1
.S'Cain'
p1
.S'Loren'
p1
.S'Passerine'
p1
.S'Genghis'
p1
.S'Cohen'
p1
.S'Karel'
p1
.S'Liman'
p1
.S'Wilhelm'
p1
.S'von'
p1
.S'Doderer'
p1
.S'Emma'
p1
.S'Danes'
p1
.S'Ely'
p1
.S'Jack'
p1
.S'Slang'
p1
.S'Lena'
p1
.S'Niobe'
p1
.S'George'
p1
.S'Edwards'
p1
.S'George'
p1
.S'Ruthven'
p1
.S'John'
p1
.S'Stafford'
p1
.S'Eddie'
p1
.S'Arthur'
p1
.S'John'
p1
.S'Barsad'
p1
.S'Dryden'
p1
.S'Dorinda'
p1
.S'Morgan'
p1
.S'Berlioz'
p1
.S'Louisa'
p1
.S'Lily'
p1
.S'Western'
p1
.S'Kennedy'
p1
.S'Yanko'
p1
.S'Goorall'
p1
.S'Molly'
p1
.S'Farren'
p1
.S'Pola'
p1
.S'Lene'
p1
.S'Emma'
p1
.S'Roger'
p1
.S'Jerry'
p1
.S'Bertha'
p1
.S'Marshall'
p1
.S'Grossman'
p1
.S'Amelia'
p1
.S'Lanyer'
p1
.S'Cleanth'
p1
.S'Brooks'
p1
.S'Tomasso'
p1
.S'Landolfi'
p1
.S'Victoria'
p1
.S'Kaliayev'
p1
.S'William'
p1
.S'Booth'
p1
.S'Robert'
p1
.S'James'
p1
.S'Tom'
p1
.S'Thumb'
p1
.S'Valentine'
p1
.S'Wilding'
p1
.S'Maurice'
p1
.S'Levasseur'
p1
.S'Florentine'
p1
.S'Vivier'
p1
.S'Lord'
p1
.S'Frederick'
p1
.S'William'
p1
.S'James'
p1
.S'Molly'
p1
.S'Byrne'
p1
.S'Frederick'
p1
.S'William'
p1
.S'IV'
p1
.S'Osgood'
p1
.S'Crackenthorp'
p1
.S'William'
p1
.S'Ratcliff'
p1
.S'Bacharach'
p1
.S'Zenobia'
p1
.S'Brockelbanck'
p1
.S'Reverend'
p1
.S'Colley'
p1
.S'Billy'
p1
.S'Rogers'
p1
.S'Joseph'
p1
.S'Koljaiczek'
p1
.S'Marcel'
p1
.S'Yarmolinsky'
p1
.S'Vincenzo'
p1
.S'Giustiniani'
p1
.S'Pasquin'
p1
.S'Marcel'
p1
.S'Andre'
p1
.S'Campra'
p1
.S'Juliana'
p1
.S'Bertha'
p1
.S'Paianian'
p1
.S'Charmantides'
p1
.S'Dante'
p1
.S'Gabriel'
p1
.S'Rosetti'
p1
.S'Eugene'
p1
.S'Dawn'
p1
.S'Madame'
p1
.S'Pernelle'
p1
.S'Odlyzko'
p1
.S'Schonhage'
p1
.S'Siegel'
p1
.S'Frisch'
p1
.S'Tina'
p1
.S'Sarti'
p1
.S'Anthony'
p1
.S'Wybrow'
p1
.S'Oreillons'
p1
.S'Rousseau'
p1
.S'Carlier'
p1
.S'Viscount'
p1
.S'Lovell'
p1
.S'Daphne'
p1
.S'Madame'
p1
.S'Pernelle'
p1
.S'Dorine'
p1
.S'King'
p1
.S'Tennyson'
p1
.S'Perigune'
p1
.S'Basilio'
p1
.S'Simon'
p1
.S'Victoria'
p1
.S'Christophil'
p1
.S'Mary'
p1
.S'Wray'
p1
.S'Lazarus'
p1
.S'Jack'
p1
.S'Orkney'
p1
.S'Don'
p1
.S'Juan'
p1
.S'Maurice'
p1
.S'Merleau-Ponty'
p1
.S'Jack'
p1
.S'Roberta'
p1
.S'Maia'
p1
.S'Constance'
p1
.S'Madame'
p1
.S'Tellier'
p1
.S'Peri'
p1
.S'Siegfried'
p1
.S'Tian'
p1
.S'Shan'
p1
.S'Diaph'
p1
.S'Silkworm'
p1
.S'Ramsey'
p1
.S'Lankes'
p1
.S'Abel'
p1
.S'Whittle'
p1
.S'Juan'
p1
.S'Alvarez'
p1
.S'W.H.'
p1
.S'Auden'
p1
.S'Bobik'
p1
.S'Castille'
p1
.S'Richard'
p1
.S'Bentley'
p1
.S'David'
p1
.S'Evariste'
p1
.S'Gamelin'
p1
.S'Madme'
p1
.S'Gilberte'
p1
.S'Julien'
p1
.S'Arcade'
p1
.S'Henri'
p1
.S'Bergson'
p1
.S'Carl'
p1
.S'Orff'
p1
.S'Louis'
p1
.S'Noble'
p1
.S'Yanko'
p1
.S'Bartell'
p1
.S"D'Arcy"
p1
.S'Danko'
p1
.S'Antoine'
p1
.S'Omar'
p1
.S'Torrijos'
p1
.S'Rutherford'
p1
.S'B.'
p1
.S'Hayes'
p1
.S'Alpheus'
p1
.S'Pedro'
p1
.S'Anna'
p1
.S'Liddy'
p1
.S'Smallbury'
p1
.S'Antonio'
p1
.S'Benivieni'
p1
.S'Citron'
p1
.S'Jude'
p1
.S'Wanniski'
p1
.S'Buddhi'
p1
.S'Siddhi'
p1
.S'Ross'
p1
.S'Natasha'
p1
.S'Heinrich'
p1
.S'Heine'
p1
.S'Lawrence'
p1
.S'Morley'
p1
.S'Walter'
p1
.S'Pitman'
p1
.S'Matthews'
p1
.S'Sutherland'
p1
.S'Darley'
p1
.S'Dannie'
p1
.S'Richmond'
p1
.S'Joe'
p1
.S'Colchic'
p1
.S'Vitellius'
p1
.S'Keith'
p1
.S'Bullen'
p1
.S'Mike'
p1
.S'Wallace'
p1
.S'Gerard'
p1
.S'Duval'
p1
.S'Rico'
p1
.S'Verri'
p1
.S'Hinkfuss'
p1
.S'Wilhelm'
p1
.S'Fliess'
p1
.S'William'
p1
.S'Walters'
p1
.S'Queen'
p1
.S'Beatrice'
p1
.S'Josephslegende'
p1
.S'Paul'
p1
.S'Hilbert'
p1
.S'Lucien'
p1
.S'Fleurier'
p1
.S'Dirck'
p1
.S'???'
p1
.S'Daphne'
p1
.S'Darwin'
p1
.S'Bonaparte'
p1
.S'Drake'
p1
.S'Baroness'
p1
.S'Philip'
p1
.S'IV'
p1
.S'Reggie'
p1
.S'St.'
p1
.S'Cloud'
p1
.S'Hieronymous'
p1
.S'Esmer'
p1
.S'Thomas'
p1
.S'Murner'
p1
.S'Juan'
p1
.S'Alvarado'
p1
.S'Danny'
p1
.S'Ward'
p1
.S'Hans'
p1
.S'Thor'
p1
.S'Heyerdahl'
p1
.S'Jahi'
p1
.S'Hans'
p1
.S'Kachelgarten'
p1
.S'Andriy'
p1
.S'Robert'
p1
.S'Dinwiddie'
p1
.S'Begbick'
p1
.S'Trinity'
p1
.S'Moses'
p1
.S'Adolfo'
p1
.S'Bioy'
p1
.S'Casares'
p1
.S'Bustos'
p1
.S'Domecq'
p1
.S'Don'
p1
.S'Isidro'
p1
.S'Parodi'
p1
.S'Capistrano'
p1
.S'Janos'
p1
.S'Hunyadi'
p1
.S'Gwyn'
p1
.S'Griffiths'
p1
.S'Diodorus'
p1
.S'Siculus'
p1
.S'Wren'
p1
.S'Pascal'
p1
.S'Hurst'
p1
.S'Gabriel'
p1
.S'Doyen'
p1
.S'Roman'
p1
.S'Emperor'
p1
.S'Caligula'
p1
.S'Antoine'
p1
.S'Ronald'
p1
.S'Jones'
p1
.S'Masuji'
p1
.S'Ono'
p1
.S'Etsuko'
p1
.S'Keiko'
p1
.S'Stevens'
p1
.S'Miss'
p1
.S'Kenton'
p1
.S'Renyi'
p1
.S'Shannon'
p1
.S'Stone'
p1
.S'Sebastian'
p1
.S'Blake'
p1
.S'Henry'
p1
.S'James'
p1
.S'Roderick'
p1
.S'Wilson'
p1
.S'Leber'
p1
.S'Darley'
p1
.S'Latane'
p1
.S'Jerzy'
p1
.S'Grotowski'
p1
.S'Gordon'
p1
.S'Comstock'
p1
.S'Dorothy'
p1
.S'Hare'
p1
.S'Friedrich'
p1
.S'Schiller'
p1
.S'Maria'
p1
.S'Stuart'
p1
.S'Gea'
p1
.S'Joan'
p1
.S'Baez'
p1
.S'Siris'
p1
.S'Divina'
p1
.S'Flor'
p1
.S'Oe'
p1
.S'Robert'
p1
.S'Torrens'
p1
.S'David'
p1
.S'Ricardo'
p1
.S'George'
p1
.S'Bernard'
p1
.S'Shaw'
p1
.S'Prince'
p1
.S'Gorchakov'
p1
.S'Vera'
p1
.S'Peter'
p1
.S'Wheatstraw'
p1
.S'Edmunds'
p1
.S'Edmunds'
p1
.S'F.G.'
p1
.S'Frobenius'
p1
.S'John'
p1
.S'Reed'
p1
.S'Jack'
p1
.S'Kerouac'
p1
.S'Andrew'
p1
.S'Speaker'
p1
.S'Sergey'
p1
.S'Joseph'
p1
.S'Breuer'
p1
.S'Anna'
p1
.S'O.'
p1
.S'Michael'
p1
.S'Mark'
p1
.S'Twain'
p1
.S'John'
p1
.S'Thompson'
p1
.S'Marius'
p1
.S'Byleveld'
p1
.S'Helen'
p1
.S'Martins'
p1
.S'Higgins'
p1
.S'Nancy'
p1
.S'Michael'
p1
.S'Gabriel'
p1
.S'Atlan-Ferrera'
p1
.S'Ezekial'
p1
.S'Skinner'
p1
.S'Herman'
p1
.S'Hesse'
p1
.S'Louis'
p1
.S'Garcia'
p1
.S'Marquez'
p1
.S'Charles'
p1
.S'VI'
p1
.S'Batu'
p1
.S'Yohanan'
p1
.S'Grinshpon'
p1
.S'Bertrand'
p1
.S'Russell'
p1
.S'Barbara'
p1
.S'Smith'
p1
.S'Sibeko'
p1
.S'Henry'
p1
.S'James'
p1
.S'Derek'
p1
.S'Walcott'
p1
.S'Tom'
p1
.S'Paulin'
p1
.S'Marie'
p1
.S'Tomlinson'
p1
.S'Macmillan'
p1
.S'Shoba'
p1
.S'Kantorek'
p1
.S'Shozo'
p1
.S'Lydia'
p1
.S'Ernest'
p1
.S'Oppenheimer'
p1
.S'Beresford'
p1
.S'Eugene'
p1
.S'Dawn'
p1
.S'Redeemer'
p1
.S'Lazarus'
p1
.S'Morell'
p1
.S'Monk'
p1
.S'Eastman'
p1
.S'Larry'
p1
.S'Juan'
p1
.S'Ramirez'
p1
.S'Pierpoint'
p1
.S'Mauler'
p1
.S'Francisco'
p1
.S'Leal'
p1
.S'Irene'
p1
.S'Beltran'
p1
.S'Leos'
p1
.S'Janacek'
p1
.S'Carlos'
p1
.S'Tevez'
p1
.S'Lionel'
p1
.S'Messi'
p1
.S'Alexander'
p1
.S'McLeod'
p1
.S'Amos'
p1
.S'Durfree'
p1
.S'Chuang'
p1
.S'Tzu'
p1
.S'Maximilian'
p1
.S'von'
p1
.S'Trautmansdorff'
p1
.S'V.'
p1
.S'S.'
p1
.S'Naipaul'
p1
.S'Dennis'
p1
.S'Barlow'
p1
.S'Aimee'
p1
.S'Thanatogenos'
p1
.S'Derbforgaill'
p1
.S'Sarah'
p1
.S'Casey'
p1
.S'Michael'
p1
.S'Byrne'
p1
.S'Wagner'
p1
.S'Wilhelm'
p1
.S'Heckel'
p1
.S'Somogyi'
p1
.S'Paul'
p1
.S'Conrad'
p1
.S'Aiken'
p1
.S'Berenice'
p1
.S'Entner'
p1
.S'Terry'
p1
.S'Pedro'
p1
.S'Juan'
p1
.S'Cabellero'
p1
.S'Yasumasa'
p1
.S'Morimura'
p1
.S'Nef'
p1
.S'Hans'
p1
.S'Toch'
p1
.S'Bricoleur'
p1
.S'Craik'
p1
.S'Brown'
p1
.S'Junius'
p1
.S'Brutus'
p1
.S'Stearns'
p1
.S'Jasiu'
p1
.S'Karen'
p1
.S'Swann'
p1
.S'Melchior'
p1
.S'Lussy'
p1
.S'Diego'
p1
.S'Lainez'
p1
.S'Charles'
p1
.S'Borromeo'
p1
.S'Heyward'
p1
.S'Marshall'
p1
.S'Joan'
p1
.S'Robinson'
p1
.S'Ignacio'
p1
.S'Comonfort'
p1
.S'Alfred'
p1
.S'Alvarez'
p1
.S'Marvell'
p1
.S'Marcian'
p1
.S'Bouvard'
p1
.S'Hyblaei'
p1
.S'Hills'
p1
.S'Cush'
p1
.S'Peter'
p1
.S'Pelham'
p1
.S'Joseph'
p1
.S'Blackburn'
p1
.S'Epes'
p1
.S'Sargent'
p1
.S'Baron'
p1
.S'Graham'
p1
.S'Rudolf'
p1
.S'Rudolf'
p1
.S'Lotharingian'
p1
.S'Walter'
p1
.S'Lippman'
p1
.S'John'
p1
.S'Mitchell'
p1
.S'Philip'
p1
.S'Wigle'
p1
.S'Chester'
p1
.S'Himes'
p1
.S'Noether'
p1
.S'Jiri'
p1
.S'Valer'
p1
.S'Jain'
p1
.S'Jain'
p1
.S'Max'
p1
.S'Klinger'
p1
.S'J.'
p1
.S'L.'
p1
.S'Austin'
p1
.S'Shoshana'
p1
.S'Felman'
p1
.S'Fischer'
p1
.S'Phyllis'
p1
.S'Kaberry'
p1
.S'Pluchart'
p1
.S'Pluchart'
p1
.S'Joshua'
p1
.S'Anders'
p1
.S'Rasmussen'
p1
.S'Lewis'
p1
.S'Rina'
p1
.S'Pesti'
p1
.S'Hirlap'
p1
.S'Lolli'
p1
.S'Mstislav'
p1
.S'Rostropovich'
p1
.S'Schiff'
p1
.S'Lucas'
p1
.S'Lester'
p1
.S'Young'
p1
.S'Ravi'
p1
.S'Ignatius'
p1
.S'Achaempong'
p1
.S'Frederick'
p1
.S'Akuffo'
p1
.S'Chikyu'
p1
.S'Hakken'
p1
.S'Keith'
p1
.S'Bullen'
p1
.S'Joll'
p1
.S'Cutuco'
p1
.S'Napoleon'
p1
.S'???'
p1
.S'Morris'
p1
.S'Zachariah'
p1
.S'Sizwe'
p1
.S'Banzi'
p1
.S'Anna'
p1
.S'Karenina'
p1
.S'Andreas'
p1
.S"O'Reilly"
p1
.S'Marion'
p1
.S'Keech'
p1
.S'Svarog'
p1
.S'Nicholas'
p1
.S'Herkimer'
p1
.S'Liath'
p1
.S'Macha'
p1
.S'Dub'
p1
.S'Sainglend'
p1
.S'Harold'
p1
.S'McMillan'
p1
.S'Wickland'
p1
.S'Brehm'
p1
.S'Dresher'
p1
.S'Bartoli'
p1
.S'Ann'
p1
.S'Vickers'
p1
.S'Humphrey'
p1
.S'Roger'
p1
.S'Freeing'
p1
.S'Angelica'
p1
.S'Ludwig'
p1
.S'Sura'
p1
.S'Frau'
p1
.S'Doni'
p1
.S'Thun'
p1
.S'Graf'
p1
.S'Spee'
p1
.S'Imagawa'
p1
.S'Yoshimoto'
p1
.S'Charles'
p1
.S'H.'
p1
.S'Bennett'
p1
.S'Bela'
p1
.S'Bartok'
p1
.S'Maurice'
p1
.S'Ravel'
p1
.S'Kelvin'
p1
.S'Alfred'
p1
.S'Kroeber'
p1
.S'George'
p1
.S'Akerlof'
p1
.S'Ernest'
p1
.S'Opik'
p1
.S'Shiv'
p1
.S'Kumar'
p1
.S'Kelvin'
p1
.S'Richard'
p1
.S'???'
p1
.S'Willie'
p1
.S'Frank'
p1
.S'Hodder'
p1
.S'Kelvin'
p1
.S'Charles'
p1
.S'Francis'
p1
.S'Murphy'
p1
.S'Raphael'
p1
.S'Orlick'
p1
.S'Safronov'
p1
.S'Harold'
p1
.S'Harefoot'
p1
.S'Isaac'
p1
.S'Brock'
p1
.S'Cadmus'
p1
.S'Alexander'
p1
.S'Wolszczan'
p1
.S'Raymond'
p1
.S'Rambert'
p1
.S'Bernard'
p1
.S'Rieux'
p1
.S'Albert'
p1
.S'Camus'
p1
.S'Johannes'
p1
.S'Fabricius'
p1
.S'William'
p1
.S'John'
p1
.S'Bankes'
p1
.S'Friedmann'
p1
.S'John'
p1
.S'Everett'
p1
.S'Millais'
p1
.S'Likoma'
p1
.S'Robert'
p1
.S'Wilson'
p1
.S'Ibn'
p1
.S'Khaldun'
p1
.S'John'
p1
.S'Maynard'
p1
.S'Keynes'
p1
.S'Martin'
p1
.S'Garder'
p1
.S'Parker'
p1
.S'Wasserburg'
p1
.S'Kepler'
p1
.S'Noah'
p1
.S'Judy'
p1
.S'Oppenheimer'
p1
.S'Natalie'
p1
.S'Waite'
p1
.S'Derek'
p1
.S'Freeman'
p1
.S'Bromsulphalein'
p1
.S'Don'
p1
.S'Carlos'
p1
.S'Buell'
p1
.S'Ludovico'
p1
.S'Ariosto'
p1
.S'Alick'
p1
.S'Isaacs'
p1
.S'Jean'
p1
.S'Lindenmann'
p1
.S'Primo'
p1
.S'de'
p1
.S'Rivera'
p1
.S'John'
p1
.S'Evershed'
p1
.S'Namdhari'
p1
.S'Nirankari'
p1
.S'King'
p1
.S'Hardecanute'
p1
.S'Emma'
p1
.S'Maurice'
p1
.S'Rouvier'
p1
.S'Francois'
p1
.S'Jacob'
p1
.S'Jacques'
p1
.S'Monod'
p1
.S'Kerr'
p1
.S'Wylie'
p1
.S'Currie'
p1
.S'Lucius'
p1
.S'Domitius'
p1
.S'Ahenobarbus'
p1
.S'Kopeykin'
p1
.S'Onsager'
p1
.S'Narayana'
p1
.S'Robert'
p1
.S'Lowell'
p1
.S'Albert'
p1
.S'Parsons'
p1
.S'Rina'
p1
.S'Schwarz'
p1
.S'Kerr'
p1
.S'Wyllie'
p1
.S'Currie'
p1
.S'Gibbard'
p1
.S'Charles'
p1
.S'Darwin'
p1
.S'Frederick'
p1
.S'Addicott'
p1
.S'Shi'
p1
.S'Sharpless'
p1
.S'Waldo'
p1
.S'Frank'
p1
.S'Huang'
p1
.S'Ariamnes'
p1
.S'Surenas'
p1
.S'Ludwig'
p1
.S'Benedek'
p1
.S'Trampler'
p1
.S'Baltasar'
p1
.S'Bustos'
p1
.S'Gabriel'
p1
.S'Caroli'
p1
.S'Alfred'
p1
.S'Wagner'
p1
.S'Glisson'
p1
.S'Chandrasekhar'
p1
.S'Brown'
p1
.S'James'
p1
.S'Smith'
p1
.S'Enoch'
p1
.S'Frederick'
p1
.S'Addicott'
p1
.S'Casal'
p1
.S'Hilary'
p1
.S'Putnam'
p1
.S'Joad'
p1
.S'Gramsci'
p1
.S'Genaveva'
p1
.S'Abraham'
p1
.S'Cowley'
p1
.S'Hugh'
p1
.S'Breckenridge'
p1
.S'Juliana'
p1
.S'Tita'
p1
.S'Bordereau'
p1
.S'Eleazer'
p1
.S'Hosannah'
p1
.S'Godspeak'
p1
.S'Gower'
p1
.S'Ferdinand'
p1
.S'Kugler'
p1
.S'John'
p1
.S'Honeyman'
p1
.S'Johann'
p1
.S'Rall'
p1
.S'Brian'
p1
.S'Boyd'
p1
.S'Aunt'
p1
.S'Maud'
p1
.S'Abraham'
p1
.S'Lincoln'
p1
.S'Sheehan'
p1
.S'Entner'
p1
.S'Odin'
p1
.S'Otfall'
p1
.S'Gilian'
p1
.S'Overring'
p1
.S'Mary'
p1
.S'Flavia'
p1
.S'Godfrey'
p1
.S'Sandy'
p1
.S'???'
p1
.S'Kukshina'
p1
.S'Omi'
p1
.S'Andrew'
p1
.S'Pengilly'
p1
.S'Monod'
p1
.S'Wyman'
p1
.S'Orest'
p1
.S'Mercator'
p1
.S'Dan'
p1
.S'Moore'
p1
.S'Asimov'
p1
.S'Fois'
p1
.S'Gras'
p1
.S'Peterson'
p1
.S'Knoevenagel'
p1
.S'G.'
p1
.S'E.'
p1
.S'Moore'
p1
.S'Richard'
p1
.S'H.'
p1
.S'White'
p1
.S'Arnold'
p1
.S'H.'
p1
.S'Gethe'
p1
.S'John'
p1
.S'Alden'
p1
.S'Carpenter'
p1
.S'Kleppner'
p1
.S'Isodor'
p1
.S'Rabi'
p1
.S'Irving'
p1
.S'Horowitz'
p1
.S'Hans'
p1
.S'Gerthe'
p1
.S'August'
p1
.S'Wilhelm'
p1
.S'von'
p1
.S'Hofman'
p1
.S'Edward'
p1
.S'Ottilie'
p1
.S'Gamp'
p1
.S'Gilbert'
p1
.S'Lewis'
p1
.S'Rolnick'
p1
.S'Weber'
p1
.S'Akerlof'
p1
.S'Clough'
p1
.S'Anthony'
p1
.S'Hecht'
p1
.S'Gibbs'
p1
.S'Ptolemaics'
p1
.S'Nordalbingia'
p1
.S'Richard'
p1
.S'Medville'
p1
.S'Robert'
p1
.S'Turgeon'
p1
.S'Bertrand'
p1
.S'Russell'
p1
.S'Joshua'
p1
.S'Chamberlain'
p1
.S'Yamamoto'
p1
.S'Faraday'
p1
.S'Ilyas'
p1
.S'Khodja'
p1
.S'Marcel'
p1
.S'Duchamp'
p1
.S'Cornelia'
p1
.S'Parker'
p1
.S'Bradd'
p1
.S'Criley'
p1
.S'Cass'
p1
.S'Timberlane'
p1
.S'Clarence'
p1
.S'Smith'
p1
.S'Joseph'
p1
.S'Lister'
p1
.S'Samuel'
p1
.S'M.'
p1
.S'Johnson'
p1
.S'Jasper'
p1
.S'McGruder'
p1
.S'Refsum'
p1
.S'Husserl'
p1
.S'Eva'
p1
.S'Strecker'
p1
.S'August'
p1
.S'Wilhem'
p1
.S'von'
p1
.S'Hofman'
p1
.S'Fermor'
p1
.S'Anna'
p1
.S'Ken'
p1
.S'Keaton'
p1
.S'Cornelius'
p1
.S'Rudolf'
p1
.S'Escher'
p1
.S'Nicholas'
p1
.S'Kant'
p1
.S'Siegmund'
p1
.S'Gabriel'
p1
.S'Dieckmann'
p1
.S'Callisto'
p1
.S'Kapustinski'
p1
.S'Hippolochus'
p1
.S'Kapustinskii'
p1
.S'Cannizzaro'
p1
.S'Montgomery'
p1
.S'Marvin'
p1
.S'Roberto'
p1
.S'Yambo'
p1
.S'J.J.'
p1
.S'Hood'
p1
.S'Maxwell'
p1
.S'Simon'
p1
.S'Wright'
p1
.S'Kharasch'
p1
.S'Brown'
p1
.S'Suzuki'
p1
.S'Prance'
p1
.S'Meyers'
p1
.S'Lewis'
p1
.S'Kapustinskii'
p1
.S'Pechmann'
p1
.S'Simone'
p1
.S'Molinaro'
p1
.S'Marangoni'
p1
.S'Berthelot'
p1
.S'Thomsen'
p1
.S'Kohler'
p1
.S'Equation'
p1
.S'Leibniz'
p1
.S'Rhys'
p1
.S'Hughes'
p1
.S'Thaden'
p1
.S'E.'
p1
.S'Coli'
p1
.S'David'
p1
.S'Rozema'
p1
.S'Marsh'
p1
.S'Lerch'
p1
.S'Benard'
p1
.S'Benard'
p1
.S'Michael'
p1
.S'Nancy'
p1
.S'Charles'
p1
.S'Pedersen'
p1
.S'Neil'
p1
.S'Opdyke'
p1
.S'Lars'
p1
.S'Onsager'
p1
.S'Trautz'
p1
.S'Lewis'
p1
.S'Wigner'
p1
.S'Josias'
p1
.S'Priest'
p1
.S'Thomas'
p1
.S'Betterton'
p1
.S'Epsom'
p1
.S'Wells'
p1
.S'Reverend'
p1
.S'Jennings'
p1
.S'Onsager'
p1
.S'Agnes'
p1
.S'Sorel'
p1
.S'Morse'
p1
.S'Frazer'
p1
.S'Das'
p1
.S'Tagebuch'
p1
.S'Theodor'
p1
.S'Curtius'
p1
.S'Big'
p1
.S'Sur'
p1
.S'Hieronymous'
p1
.S'Bosch'
p1
.S'Boord'
p1
.S'Lord'
p1
.S'Saxmundham'
p1
.S'Zeisel'
p1
.S'Hoff'
p1
.S'Horner'
p1
.S'Haworth'
p1
.S'Ellman'
p1
.S'Wilkinson'
p1
.S'Cottrell'
p1
.S'Noyori'
p1
.S'Frankland'
p1
.S'Jean'
p1
.S'Froissart'
p1
.S'Russell'
p1
.S'Charles'
p1
.S'Jenkins'
p1
.S'Tafel'
p1
.S'Francisco'
p1
.S'Pacheco'
p1
.S'Peter'
p1
.S'Brunel'
p1
.S'Corey'
p1
.S'Bakshi'
p1
.S'Shibata'
p1
.S'Karl'
p1
.S'Fischer'
p1
.S'John'
p1
.S'Everett'
p1
.S'Millais'
p1
.S'Goebbels'
p1
.S'Kulp'
p1
.S'Georg'
p1
.S'Geissler'
p1
.S'Phillips'
p1
.S'John'
p1
.S'Martin'
p1
.S'Crawford'
p1
.S'Robert'
p1
.S'Ekman'
p1
.S'MacGowan'
p1
.S'Herbert'
p1
.S'S.'
p1
.S'Terrace'
p1
.S'Cadmus'
p1
.S'Mark'
p1
.S'Twain'
p1
.S'John'
p1
.S'Bunyan'
p1
.S'Wenlockian'
p1
.S'Baro'
p1
.S'Gorge'
p1
.S'Koopman'
p1
.S'Viktor'
p1
.S'Suvorov'
p1
.S'Marmes'
p1
.S'Rockshelter'
p1
.S'Robert'
p1
.S'Gray'
p1
.S'Ruzicka'
p1
.S'Susanna'
p1
.S'Rowson'
p1
.S'Michael'
p1
.S'Hart'
p1
.S'Lawrence'
p1
.S'Ferlenghetti'
p1
.S'Childe'
p1
.S'Roland'
p1
.S'Cornelius'
p1
.S'Nepos'
p1
.S'Lucy'
p1
.S'Darleton'
p1
.S'Bill'
p1
.S'Shaw'
p1
.S'Jefferson'
p1
.S'Benjamin'
p1
.S'Franklin'
p1
.S'Bache'
p1
.S'Dimitri'
p1
.S'Sitkovetsky'
p1
.S'Arthur'
p1
.S'Frackenpohl'
p1
.S'Carl'
p1
.S'Van'
p1
.S'Doren'
p1
.S'Hamlin'
p1
.S'Garland'
p1
.S'Dana'
p1
.S'Sutton'
p1
.S'Larry'
p1
.S'Ramirez'
p1
.S'Larry'
p1
.S'Sarah'
p1
.S'Bell'
p1
.S'James'
p1
.S'Baikie'
p1
.S'Newby'
p1
.S'Isokyro'
p1
.S'Daniel'
p1
.S'Bernoulli'
p1
.S'Leonhard'
p1
.S'Euler'
p1
.S'Frederick'
p1
.S'the'
p1
.S'Great'
p1
.S'Daniel'
p1
.S'Bernoulli'
p1
.S'Michel'
p1
.S'Foucault'
p1
.S'John'
p1
.S'the'
p1
.S'Pious'
p1
.S'Sebastian'
p1
.S'Cabot'
p1
.S'Juan'
p1
.S'Diaz'
p1
.S'de'
p1
.S'Solis'
p1
.S'Mary'
p1
.S'Thayer'
p1
.S'Coleridge'
p1
.S'Jackson'
p1
.S'Jacques'
p1
.S'Strum'
p1
.S'Cardano'
p1
.S'Charles'
p1
.S'Leon'
p1
.S'Brillouin'
p1
.S'Charles'
p1
.S'Bennett'
p1
.S'Max'
p1
.S'Van'
p1
.S'Laue'
p1
.S'Jose'
p1
.S'Saraiva'
p1
.S'Atanasio'
p1
.S'Aguirre'
p1
.S'Marth'
p1
.S'Mendelson'
p1
.S'Tarski'
p1
.S'Weierstrass'
p1
.S'James'
p1
.S'Nolan'
p1
.S'Fergus'
p1
.S'Kilpatrick'
p1
.S'Anne'
p1
.S'Curry'
p1
.S'Ben'
p1
.S'Telfair'
p1
.S'Brahma'
p1
.S'Joseph'
p1
.S'Jason'
p1
.S'Pelias'
p1
.S'Hofstadter'
p1
.S'John'
p1
.S'Gay'
p1
.S'Hankel'
p1
.S'Burnside'
p1
.S'Richard'
p1
.S'Howard'
p1
.S'Wilfried'
p1
.S'Sieg'
p1
.S'Steven'
p1
.S'Wolfram'
p1
.S'Leonard'
p1
.S'Adelman'
p1
.S'Ralph'
p1
.S'Waldo'
p1
.S'Emerson'
p1
.S'Jonathan'
p1
.S'Edwards'
p1
.S'Wayne'
p1
.S'Booth'
p1
.S'Vincenzo'
p1
.S'Viviani'
p1
.S'Charles'
p1
.S'Bouvelles'
p1
.S'Alfred'
p1
.S'Jones'
p1
.S'Querry'
p1
.S'Martha'
p1
.S'Gilman'
p1
.S'Bower'
p1
.S'Howard'
p1
.S'Richard'
p1
.S'Cantwell'
p1
.S'Renata'
p1
.S'James'
p1
.S'Hlavsa'
p1
.S'Mills'
p1
.S'Cauchy'
p1
.S'Binet'
p1
.S'McIlroy'
p1
.S'Sophie'
p1
.S'Kowalevski'
p1
.S'Binet'
p1
.S'Jack'
p1
.S'Renfro'
p1
.S'Young'
p1
.S'Gentleman'
p1
.S'Erich'
p1
.S'Auerbach'
p1
.S'Anscombe'
p1
.S'Benito'
p1
.S'Cereno'
p1
.S'Victoria'
p1
.S'Guzman'
p1
.S'Grisby'
p1
.S'Gertrude'
p1
.S'Claude'
p1
.S'Lantier'
p1
.S'Ambrose'
p1
.S'Bierce'
p1
.S'Wilhelm'
p1
.S'Stekel'
p1
.S'Kelvin'
p1
.S'Francis'
p1
.S'Head'
p1
.S'Ralph'
p1
.S'Kronig'
p1
.S'Schrodinger'
p1
.S'Euler'
p1
.S'Schrodinger'
p1
.S'Dirac'
p1
.S'Hurwitz'
p1
.S'Jordan'
p1
.S'Ives'
p1
.S'Stilwell'
p1
.S'Leon'
p1
.S'Brillouin'
p1
.S'F.'
p1
.S'T.'
p1
.S'Frelinghuysen'
p1
.S'Fick'
p1
.S'Fourier'
p1
.S'Shin'
p1
.S'Inouye'
p1
.S'Feshbach'
p1
.S'Nugent'
p1
.S'Lande'
p1
.S'E.'
p1
.S'A.'
p1
.S'T.'
p1
.S'John'
p1
.S'Sassamon'
p1
.S'Robert'
p1
.S'Hanbury'
p1
.S'Brown'
p1
.S'Gombrich'
p1
.S'Cornelius'
p1
.S'???'
p1
.S'Curie'
p1
.S'Nanda'
p1
.S'Brookenham'
p1
.S'Konovalov'
p1
.S'Ramsey'
p1
.S'Zeeman'
p1
.S'Steve'
p1
.S'Lamoreaux'
p1
.S'Peter'
p1
.S'Tait'
p1
.S'Karl'
p1
.S'Krause'
p1
.S'Clifford'
p1
.S'Shull'
p1
.S'John'
p1
.S'Stuart'
p1
.S'Mill'
p1
.S'Schrodinger'
p1
.S'Bethe'
p1
.S'Aniela'
p1
.S'Jaff'
p1
.S'Bridget'
p1
.S'George'
p1
.S'Hale'
p1
.S'Langevin'
p1
.S'Feynman'
p1
.S'Ehrenberg'
p1
.S'Fadley'
p1
.S'Eoin'
p1
.S"O'Duffy"
p1
.S'Kolb'
p1
.S'Riotto'
p1
.S'David'
p1
.S'Wedding'
p1
.S'Diana'
p1
.S'Wynne'
p1
.S'Jones'
p1
.S'Hoste'
p1
.S'Mira'
p1
.S'Nair'
p1
.S'Poisson'
p1
.S'D.'
p1
.S'W.'
p1
.S'Harding'
p1
.S'Ani'
p1
.S'Richard'
p1
.S'Cloward'
p1
.S'Lloyd'
p1
.S'Ohlin'
p1
.S'Francis'
p1
.S'Sears'
p1
.S'Taylor'
p1
.S'Jacques'
p1
.S'Ellul'
p1
.S'Philip'
p1
.S'Glass'
p1
.S'Mona'
p1
.S'Lisa'
p1
.S'Jasper'
p1
.S'Johns'
p1
.S'???'
p1
.S'Gianni'
p1
.S'Carugno'
p1
.S'Roberto'
p1
.S'Onofrio'
p1
.S'Poe'
p1
.S'Cowan'
p1
.S'Reines'
p1
.S'Thomas'
p1
.S'Payette'
p1
.S'Abubakari'
p1
.S'II'
p1
.S'Cinteotl'
p1
.S'Xochipilli'
p1
.S'Neumann'
p1
.S'Loki'
p1
.S'Berry'
p1
.S'Dirac'
p1
.S'Martin'
p1
.S'Chusid'
p1
.S'Lorentz'
p1
.S'Massey'
p1
.S'Martin'
p1
.S'Eggleston'
p1
.S'Ramanujan'
p1
.S'Euler'
p1
.S'Jacobi'
p1
.S'Liebniz'
p1
.S'Dyakonov'
p1
.S'Perel'
p1
.S'Nguigmi'
p1
.S'Bol'
p1
.S'Zhang'
p1
.S'Raithel'
p1
.S'Hartman'
p1
.S'Eisenbud'
p1
.S'Wigner'
p1
.S'Marangoni'
p1
.S'Kerr'
p1
.S'Schiff'
p1
.S'Stoicheff'
p1
.S'Ginsburg'
p1
.S'Haldane'
p1
.S'Haperin'
p1
.S'Weber'
p1
.S'Tolman'
p1
.S'Bob'
p1
.S'Diven'
p1
.S'Jessie'
p1
.S'Stilwell'
p1
.S'Ann'
p1
.S'Davis'
p1
.S'Gideon'
p1
.S'Shibalo'
p1
.S'Mosher'
p1
.S'Hagemann'
p1
.S'Josephson'
p1
.S'Mallarme'
p1
.S'Huysmans'
p1
.S'Kapton'
p1
.S'Peierls'
p1
.S'Francis'
p1
.S'Heck'
p1
.S'Jomo'
p1
.S'Kenyatta'
p1
.S'Gerald'
p1
.S'Platt'
p1
.S'Neil'
p1
.S'Smelser'
p1
.S'Anne'
p1
.S'Singleton'
p1
.S'Valetta'
p1
.S'Swan'
p1
.S'Rudolf'
p1
.S'Dreikurs'
p1
.S'Venus'
p1
.S'Karl'
p1
.S'Mannheim'
p1
.S'Henry'
p1
.S'Louis'
p1
.S'Gates'
p1
.S'Alfred'
p1
.S'Kroeber'
p1
.S'Joseph'
p1
.S'Emory'
p1
.S'Prank'
p1
.S'Valetta'
p1
.S'Swann'
p1
.S'Whitlaw'
p1
.S'Reed'
p1
.S'Albert'
p1
.S'Brisbane'
p1
.S'William'
p1
.S'Rice'
p1
.S'Natalie'
p1
.S'Raymond'
p1
.S'Ruth'
p1
.S'Valentine'
p1
.S'Larry'
p1
.S'Gonick'
p1
.S'Darley'
p1
.S'Latane'
p1
.S'Johann'
p1
.S'Joachim'
p1
.S'Quantz'
p1
.S'Theobald'
p1
.S'Boehm'
p1
.S'Siva'
p1
.S'Gene'
p1
.S'Weltfish'
p1
.S'W.'
p1
.S'Lloyd'
p1
.S'Warner'
p1
.S'Robert'
p1
.S'Kapsis'
p1
.S'Borda'
p1
.S'William'
p1
.S'Dean'
p1
.S'Howells'
p1
.S'Hans'
p1
.S'Gerth'
p1
.S'David'
p1
.S'Roberts'
p1
.S'John'
p1
.S'Anthony'
p1
.S'Jacob'
p1
.S'Brinkerhoff'
p1
.S'Simon'
p1
.S'Cameron'
p1
.S'Camacho'
p1
.S'Johann'
p1
.S'Ludwig'
p1
.S'Casper'
p1
.S'Tribulation'
p1
.S'Wholesome'
p1
.S'Hilary'
p1
.S'Putnam'
p1
.S'G.A.'
p1
.S'Hazelrigg'
p1
.S'Russell'
p1
.S'???'
p1
.S'Donald'
p1
.S'Hebb'
p1
.S'Robert'
p1
.S'Torrens'
p1
.S'Oliver'
p1
.S'Williamson'
p1
.S'Joseph'
p1
.S'Schumpeter'
p1
.S'Jack'
p1
.S'Straw'
p1
.S'Peter'
p1
.S'Ochello'
p1
.S'Wooley'
p1
.S'Leonardo'
p1
.S'Dati'
p1
.S'Strozzi'
p1
.S'Leibniz'
p1
.S'J.'
p1
.S'H.'
p1
.S'Hollander'
p1
.S'Tobin'
p1
.S'Green'
p1
.S'Grohg'
p1
.S'I.'
p1
.S'I.'
p1
.S'Rabi'
p1
.S'Jubba'
p1
.S'Rivers'
p1
.S'Adam'
p1
.S'Pidgeon'
p1
.S'Rouge'
p1
.S'Inkstone'
p1
.S'Andres'
p1
.S'Segovia'
p1
.S'Matsuoka'
p1
.S'Lewis'
p1
.S'Fisher'
p1
.S'Proval'
p1
.S'Bateson'
p1
.S'Soro'
p1
.S'Lazare'
p1
.S'Picault'
p1
.S'Mount'
p1
.S'Moco'
p1
.S'Carl'
p1
.S'Mauch'
p1
.S'Lygii'
p1
.S'Silingii'
p1
.S'Frederick'
p1
.S'Barbarossa'
p1
.S'Boleslaw'
p1
.S'Leibnitz'
p1
.S'Poisson'
p1
.S'Paul'
p1
.S'Helleu'
p1
.S'Claude'
p1
.S'Monet'
p1
.S'Maceo'
p1
.S'Calixto'
p1
.S'Garc'
p1
.S'Herbert'
p1
.S'Brown'
p1
.S'Walid'
p1
.S'Jumblatt'
p1
.S'Don'
p1
.S'Quixote'
p1
.S'Ferruccio'
p1
.S'Busoni'
p1
.S'Wash'
p1
.S'Williams'
p1
.S'Joe'
p1
.S'Welling'
p1
.S'Sarah'
p1
.S'King'
p1
.S'Gazal'
p1
.S'Kouroukan'
p1
.S'Fouga'
p1
.S'Moric'
p1
.S'Benovsky'
p1
.S'Ignacio'
p1
.S'Comonfort'
p1
.S'Vimar'
p1
.S'Peres'
p1
.S'Pierre'
p1
.S'Dugua'
p1
.S'Nusayri'
p1
.S'Sayyed'
p1
.S'Barakah'
p1
.S'Sarai'
p1
.S'Fulk'
p1
.S'Margarito'
p1
.S'John'
p1
.S'Rutledge'
p1
.S'Philip'
p1
.S'Kearny'
p1
.S'Sutiaba'
p1
.S'John'
p1
.S'Honeyman'
p1
.S'K.D.'
p1
.S'Malviya'
p1
.S'Pathak'
p1
.S'T.T.'
p1
.S'Krishnamachari'
p1
.S'Atanasio'
p1
.S'Aguirre'
p1
.S'Venancio'
p1
.S'Flores'
p1
.S'Brun'
p1
.S'Kastros'
p1
.S'Cape'
p1
.S'Maclear'
p1
.S'Huma'
p1
.S'Gil'
p1
.S'Gonzalez'
p1
.S'Davila'
p1
.S'George'
p1
.S'Eliot'
p1
.S'Henry'
p1
.S'Foote'
p1
.S'Frank'
p1
.S'Knight'
p1
.S'Victor'
p1
.S'Eremita'
p1
.S'Husserl'
p1
.S'Agnes'
p1
.S'Sarah'
p1
.S'Hans'
p1
.S'von'
p1
.S'Bulow'
p1
.S'Alberto'
p1
.S'Street'
p1
.S'Johann'
p1
.S'Lambert'
p1
.S'Voigt'
p1
.S'Jean'
p1
.S'Juares'
p1
.S'Whitman'
p1
.S'J.M.E.'
p1
.S'McTaggart'
p1
.S'Harry'
p1
.S'Harlow'
p1
.S'Bertha'
p1
.S'Jenny'
p1
.S'Denham'
p1
.S'Nausiphanes'
p1
.S'Pausanias'
p1
.S'Napoleon'
p1
.S'Wilhelm'
p1
.S'Wolff'
p1
.S'Levine'
p1
.S'Collins'
p1
.S'Bogoliubov'
p1
.S'Marangoni'
p1
.S'Merleau-Ponty'
p1
.S'Beaman'
p1
.S'Paralipomena'
p1
.S'Rossini'
p1
.S'Julia'
p1
.S'Frederick'
p1
.S'VI'
p1
.S'Siris'
p1
.S'Charles'
p1
.S'Taylor'
p1
.S'Herbert'
p1
.S'Marcuse'
p1
.S'Richard'
p1
.S'Rorty'
p1
.S'Ullman'
p1
.S'Johana'
p1
.S'Rahn'
p1
.S'Thomas'
p1
.S'Cole'
p1
.S'Carl'
p1
.S'Stumpf'
p1
.S'Franz'
p1
.S'Brentano'
p1
.S'Peter'
p1
.S'Peregrinus'
p1
.S'Clement'
p1
.S'Communia'
p1
.S'Naturalium'
p1
.S'Kant'
p1
.S'Jan'
p1
.S'Patocka'
p1
.S'Francis'
p1
.S'Howe'
p1
.S'Johnson'
p1
.S'Julius'
p1
.S'Caesar'
p1
.S'Benedetto'
p1
.S'Croce'
p1
.S'Dave'
p1
.S'Eugen'
p1
.S'Fink'
p1
.S'Wilhelm'
p1
.S'von'
p1
.S'Humboldt'
p1
.S'George'
p1
.S'Santayana'
p1
.S'Pascal'
p1
.S'F.'
p1
.S'K.'
p1
.S'Forberg'
p1
.S'J.B.'
p1
.S'Douglas'
p1
.S'Michael'
p1
.S'Friedlander'
p1
.S'Kimberly'
p1
.S'Cornish'
p1
.S'Hitler'
p1
.S'Swami'
p1
.S'Vivekananda'
p1
.S'James'
p1
.S'Watt'
p1
.S'Herculine'
p1
.S'Barbin'
p1
.S'G.A.'
p1
.S'Cohen'
p1
.S'H.B.'
p1
.S'Acton'
p1
.S'Karl'
p1
.S'Popper'
p1
.S'Gamliel'
p1
.S'Smith'
p1
.S'Paul'
p1
.S'Lewis'
p1
.S'Feuer'
p1
.S'Alan'
p1
.S'Donagan'
p1
.S'Jonathan'
p1
.S'Bennett'
p1
.S'Edwin'
p1
.S'Curley'
p1
.S'William'
p1
.S'of'
p1
.S'Moerbeke'
p1
.S'H.'
p1
.S'L.'
p1
.S'Mansel'
p1
.S'William'
p1
.S'Hamilton'
p1
.S'Lucretius'
p1
.S'Dante'
p1
.S'Bergson'
p1
.S'Fechner'
p1
.S'William'
p1
.S'Stanley'
p1
.S'Jevons'
p1
.S'Heraclitus'
p1
.S'Paul'
p1
.S'Ricoeur'
p1
.S'Alexander'
p1
.S'Hamilton'
p1
.S'Robert'
p1
.S'Morris'
p1
.S'Isaac'
p1
.S'Newton'
p1
.S'Edward'
p1
.S'McCluskey'
p1
.S'Gottlob'
p1
.S'Schulze'
p1
.S'John'
p1
.S'Harsanyi'
p1
.S'Roderick'
p1
.S'Chisholm'
p1
.S'Edmund'
p1
.S'Gettier'
p1
.S'Henri'
p1
.S'Bergson'
p1
.S'Margaret'
p1
.S'Atherton'
p1
.S'Swedenborg'
p1
.S'Cicero'
p1
.S'Giles'
p1
.S'Deleuze'
p1
.S'Jonathan'
p1
.S'Bennett'
p1
.S'Franz'
p1
.S'Kafka'
p1
.S'Nef'
p1
.S'Dirk'
p1
.S'Bax'
p1
.S'Joseph'
p1
.S'Joachim'
p1
.S'Lee'
p1
.S'Roy'
p1
.S'Jamie'
p1
.S'Lockhart'
p1
.S'Hans-Georg'
p1
.S'Gadamer'
p1
.S'Kant'
p1
.S'Arguello'
p1
.S'Josiah'
p1
.S'Royce'
p1
.S'Ernest'
p1
.S'Mason'
p1
.S'Satow'
p1
.S'Rudolf'
p1
.S'von'
p1
.S'Geist'
p1
.S'Lorenz'
p1
.S'von'
p1
.S'Stein'
p1
.S'William'
p1
.S'James'
p1
.S'???'
p1
.S'Pythagoras'
p1
.S'Takai'
p1
.S'Gregory'
p1
.S'B.'
p1
.S'Ulmer'
p1
.S'Jurgen'
p1
.S'Habermas'
p1
.S'Giovanna'
p1
.S'Borradori'
p1
.S'Tench'
p1
.S'Freud'
p1
.S'Nebi'
p1
.S"Shu'eib"
p1
.S'Jethro'
p1
.S'Sabalan'
p1
.S'Mabub'
p1
.S'ul'
p1
.S'Haq'
p1
.S'Shields'
p1
.S'Katayama'
p1
.S'Adler'
p1
.S'Jones'
p1
.S'Harris'
p1
.S'Fidel'
p1
.S'Castro'
p1
.S'Sigmund'
p1
.S'Freud'
p1
.S'Wilhelm'
p1
.S'Wundt'
p1
.S'Anscombe'
p1
.S'Robbins'
p1
.S'Lemma'
p1
.S'Lola'
p1
.S'Siva'
p1
.S'Margaret'
p1
.S'Atwood'
p1
.S'Louis'
p1
.S'Wirth'
p1
.S'D.T.'
p1
.S'Gilbert'
p1
.S'J.E.'
p1
.S'Hirsch'
p1
.S'Mark'
p1
.S'Twain'
p1
.S'Eliot'
p1
.S'Aronson'
p1
.S'Carol'
p1
.S'Tavris'
p1
.S'Hellas'
p1
.S'Mysterium'
p1
.S'Coniunctionis'
p1
.S'Castro'
p1
.S'Patrick'
p1
.S'Geddes'
p1
.S'Eisenhower'
p1
.S'C.'
p1
.S'K.'
p1
.S'Williams'
p1
.S'Erice'
p1
.S'John'
p1
.S'Martin'
p1
.S'Robert'
p1
.S'Napier'
p1
.S'Nathan'
p1
.S'Schlanger'
p1
.S'Sartre'
p1
.S'Wasserman'
p1
.S'Karen'
p1
.S'Zelan'
p1
.S'Jean-Marie'
p1
.S'Guyau'
p1
.S'Zohra'
p1
.S'Mahran'
p1
.S'Clifford'
p1
.S'Mays'
p1
.S'Nina'
p1
.S'Sutton'
p1
.S'Wicksell'
p1
.S'Alfred'
p1
.S'Bruyas'
p1
.S'J.S.'
p1
.S'Bach'
p1
.S'Richard'
p1
.S'Muhlfeld'
p1
.S'Jack'
p1
.S'Brehm'
p1
.S'Daryl'
p1
.S'Bem'
p1
.S'Winkler'
p1
.S'Pennsylvania'
p1
.S'Freeman'
p1
.S'Margaret'
p1
.S'Smith'
p1
.S'Leonard'
p1
.S'Upjohn'
p1
.S'Il'
p1
.S'Penseroso'
p1
.S'Macha'
p1
.S'Jason'
p1
.S'Giustina'
p1
.S'Barbaro'
p1
.S'Don'
p1
.S'Giovanni'
p1
.S'Schmidt'
p1
.S'Elul'
p1
.S'Martin'
p1
.S'Garcia'
p1
.S'Juan'
p1
.S'L.'
p1
.S'Lacaze'
p1
.S'Charles'
p1
.S'Greville'
p1
.S'Montagu'
p1
.S'Seker'
p1
.S'Jorge'
p1
.S'Alessandri'
p1
.S'Rene'
p1
.S'Schneider'
p1
.S'Kane'
p1
.S'Mele'
p1
.S'Haldane'
p1
.S'Josephson'
p1
.S'Beethoven'
p1
.S'Henry'
p1
.S'Sidgwick'
p1
.S'Derek'
p1
.S'Parfit'
p1
.S'Peter'
p1
.S'2:7'
p1
.S'Benjamin'
p1
.S'Hawkins'
p1
.S'Peter'
p1
.S'McQueen'
p1
.S'William'
p1
.S'Weatherford'
p1
.S'Trampler'
p1
.S'Argos'
p1
.S'Palomar'
p1
.S'Hyrrokin'
p1
.S'Herr'
p1
.S'Klesmer'
p1
.S'Gerald'
p1
.S'Platt'
p1
.S'Neil'
p1
.S'Smelser'
p1
.S'Smelser'
p1
.S'Shamash'
p1
.S'Lotis'
p1
.S'Bokhari'
p1
.S'Vladislas'
p1
.S'Perlemuter'
p1
.S'Perlemuter'
p1
.S'Aghora'
p1
.S'Bhadra'
p1
.S'Benu'
p1
.S'Umayya'
p1
.S'Anzu'
p1
.S'Damkina'
p1
.S'Niobe'
p1
.S'Pelias'
p1
.S'Saxo'
p1
.S'Grammaticus'
p1
.S'Hildesvini'
p1
.S'Shamash'
p1
.S'Sohrab'
p1
.S'Modi'
p1
.S'Joachim'
p1
.S'Kena'
p1
.S'Parthenopaeus'
p1
.S'Hamzah'
p1
.S'Hans'
p1
.S'Delbruck'
p1
.S'Phaedra'
p1
.S'John'
p1
.S'Dowland'
p1
.S'Denis'
p1
.S'Alvis'
p1
.S'Alvis'
p1
.S'Alvis'
p1
.S'Hiram'
p1
.S'Pauling'
p1
.S'William'
p1
.S'Walker'
p1
.S'Dakshinamurthi'
p1
.S'Ferenc'
p1
.S'Graf'
p1
.S'Gyulai'
p1
.S'Pandareos'
p1
.S'Symonds'
p1
.S'Ik'
p1
.S'Oknar'
p1
.S'Queen'
p1
.S'Signy'
p1
.S'Kolmogorov'
p1
.S'Bhatt'
p1
.S'Bani'
p1
.S'Japji'
p1
.S'Christiana'
p1
.S'Riot'
p1
.S'Voigt'
p1
.S'Tlatechutli'
p1
.S'Ferenczi'
p1
.S'Hall'
p1
.S'Hall'
p1
.S'Anthony'
p1
.S'Andrea'
p1
.S'Karlstadt'
p1
.S'Johann'
p1
.S'Eck'
p1
.S'Meili'
p1
.S'Rossthiof'
p1
.S'Bernard'
p1
.S'Scholz'
p1
.S'Divine'
p1
.S'Archer'
p1
.S'Shen'
p1
.S'Yi'
p1
.S'Barry'
p1
.S'Sharpless'
p1
.S'Lalo'
p1
.S'Malik'
p1
.S'Bhago'
p1
.S'Elijah'
p1
.S'Ellman'
p1
.S'Herz'
p1
.S'Hamlen'
p1
.S'Alexander'
p1
.S'Heinin'
p1
.S'Zimri'
p1
.S'Hogni'
p1
.S'Hogni'
p1
.S'Hubert'
p1
.S'Humphrey'
p1
.S'Jeremy'
p1
.S'Bentham'
p1
.S'Khonsu'
p1
.S'Scott'
p1
.S'Nelson'
p1
.S'John'
p1
.S'Garst'
p1
.S'Robinson'
p1
.S'Dictys'
p1
.S'Cretensis'
p1
.S'Margaret'
p1
.S'Walker'
p1
.S'Jenuwein'
p1
.S'Allis'
p1
.S'Edwin'
p1
.S'D.'
p1
.S'Morgan'
p1
.S'Gladys'
p1
.S'Treadwell'
p1
.S'Gedaliah'
p1
.S'Saltu'
p1
.S'Ptolemy'
p1
.S'II'
p1
.S'Philopator'
p1
.S'Baron'
p1
.S"d'Holbach"
p1
.S'Thomas'
p1
.S'Percy'
p1
.S'Agenor'
p1
.S'Uke'
p1
.S'Mochi'
p1
.S'Julian'
p1
.S'the'
p1
.S'Apostate'
p1
.S'Clive'
p1
.S'Lettice'
p1
.S'Belili'
p1
.S'Ometecuhtli'
p1
.S'Lisa'
p1
.S'Kaustubha'
p1
.S'David'
p1
.S'Nomia'
p1
.S'Piola'
p1
.S'Kirchoff'
p1
.S'Masai'
p1
.S'Gjalp'
p1
.S'Greip'
p1
.S'Samaritan'
p1
.S'Balkira'
p1
.S'Gestumblidni'
p1
.S'Gangleri'
p1
.S'Samantacakpaka'
p1
.S'Maera'
p1
.S'G.S.'
p1
.S'Kirk'
p1
.S'Cabiroi'
p1
.S'Zohar'
p1
.S'Albert'
p1
.S'Corde'
p1
.S'Minna'
p1
.S'Gabriel'
p1
.S'Leo'
p1
.S'Strauss'
p1
.S'W.T.'
p1
.S'Stace'
p1
.S'Rachel'
p1
.S'Corrie'
p1
.S'Samuel'
p1
.S'Huntington'
p1
.S'Kaliya'
p1
.S'Bidon'
p1
.S'Cleobis'
p1
.S'Pieter'
p1
.S'Vanhuysse'
p1
.S'Sang-Weon'
p1
.S'Kim'
p1
.S'Alex'
p1
.S'Pridemore'
p1
.S'Robert'
p1
.S'A.'
p1
.S'Wilson'
p1
.S'Mimas'
p1
.S'King'
p1
.S'Enmerkar'
p1
.S'Leuke'
p1
.S'Jacob'
p1
.S'Howland'
p1
.S'Socrates'
p1
.S'Leonard'
p1
.S'Holmes'
p1
.S'Julius'
p1
.S'Proculus'
p1
.S'Waser'
p1
.S'Christopher'
p1
.S'Pfyffer'
p1
.S'Jacques'
p1
.S'Ploncard'
p1
.S'Petain'
p1
.S'Vichy'
p1
.S'Walloon'
p1
.S'Jean'
p1
.S'de'
p1
.S'Sauvage'
p1
.S'Benjamin'
p1
.S'Thompson'
p1
.S'Lord'
p1
.S'Mountcashel'
p1
.S'Sebastian'
p1
.S'Victor'
p1
.S'Abraham'
p1
.S'Lincoln'
p1
.S'Abul'
p1
.S'Bashar'
p1
.S'Jugin'
p1
.S'Velazquez'
p1
.S'Johann'
p1
.S'Heinrich'
p1
.S'Lambert'
p1
.S'Stefan'
p1
.S'Peter'
p1
.S'Willems'
p1
.S'Bev'
p1
.S'Shaw'
p1
.S'Roberto'
p1
.S'Ferrante'
p1
.S'Nadir'
p1
.S'Afonso'
p1
.S'Schwartzwasser'
p1
.S'Austin'
p1
.S'Angell'
p1
.S'John'
p1
.S'Cage'
p1
.S'Merce'
p1
.S'Cunningham'
p1
.S'Keller'
p1
.S'Corey'
p1
.S'Joseph'
p1
.S'Polzer'
p1
.S'Paul'
p1
.S'Paul'
p1
.S'Jacob'
p1
.S'van'
p1
.S'Ruisdeal'
p1
.