S'Joyce'
p1
.S'Carol'
p1
.S'Oates'
p1
.S'Eugene'
p1
.S'Delacroix'
p1
.S'Claude'
p1
.S'Lorraine'
p1
.S'Bela'
p1
.S'Mary'
p1
.S'Maksim'
p1
.S'Maksimovich'
p1
.S'Fred'
p1
.S'Vincy'
p1
.S'Mary'
p1
.S'Garth'
p1
.S'Lydgate'
p1
.S'Fred'
p1
.S'Rosamond'
p1
.S'Francesco'
p1
.S'Francia'
p1
.S'Francesca'
p1
.S'S.'
p1
.S'Sulpice'
p1
.S'Bridget'
p1
.S'Gabriel-Francois'
p1
.S'Doyen'
p1
.S'Bon'
p1
.S'Bock'
p1
.S'Robert'
p1
.S'Henri'
p1
.S'Bramante'
p1
.S'Peter'
p1
.S'Eisenstein'
p1
.S'Stein'
p1
.S'Etienne'
p1
.S'Falconet'
p1
.S'Berain'
p1
.S'Durieu'
p1
.S'Josef'
p1
.S'Hoffmann'
p1
.S'Hoffmann'
p1
.S'Thomas'
p1
.S'Jefferson'
p1
.S'Herbert'
p1
.S'Pocket'
p1
.S'Compeyson'
p1
.S'Celimene'
p1
.S'Napoleon'
p1
.S'Carle'
p1
.S'Vernet'
p1
.S'Pierre'
p1
.S'Guerin'
p1
.S'Filippo'
p1
.S'Benizzi'
p1
.S'Peter'
p1
.S'Cassiano'
p1
.S'Pozzo'
p1
.S'Andre'
p1
.S'Malraux'
p1
.S'Andre'
p1
.S'Hermant'
p1
.S'Valentine'
p1
.S'Greene'
p1
.S'Jerome'
p1
.S'Zelotti'
p1
.S'Hercules'
p1
.S'Brabazon'
p1
.S'Brabazon'
p1
.S'James'
p1
.S'Wilson'
p1
.S'Morrice'
p1
.S'Nicholas'
p1
.S'de'
p1
.S'Launay'
p1
.S'Anna'
p1
.S'Landolt'
p1
.S'Johann'
p1
.S'Casper'
p1
.S'Lavater'
p1
.S'William'
p1
.S'Collins'
p1
.S'Albert'
p1
.S'Stevens'
p1
.S'Michael'
p1
.S'Angelo'
p1
.S'Titmarsh'
p1
.S'Diana'
p1
.S'Baron'
p1
.S'de'
p1
.S'Julien'
p1
.S'Muriel'
p1
.S'Belcher'
p1
.S'Luca'
p1
.S'Giordano'
p1
.S'Eric'
p1
.S'Avery'
p1
.S'Erasmus'
p1
.S'Darwin'
p1
.S'Charles'
p1
.S'Nodier'
p1
.S'Raymond'
p1
.S'Geselbracht'
p1
.S'Ernest'
p1
.S'Chesneau'
p1
.S'T.J.'
p1
.S'Clark'
p1
.S'Charles'
p1
.S'Lamb'
p1
.S'John'
p1
.S'Webster'
p1
.S'Ben'
p1
.S'Jonson'
p1
.S'Joseph'
p1
.S'Blackburn'
p1
.S'James'
p1
.S'Russell'
p1
.S'Katherine'
p1
.S'Graves'
p1
.S'Thomas'
p1
.S'Boylston'
p1
.S'Samuel'
p1
.S'Adams'
p1
.S'Elizabeth'
p1
.S'Peters'
p1
.S'Albert'
p1
.S'Hunold'
p1
.S'Georgiana'
p1
.S'John'
p1
.S'Hales'
p1
.S'Hales'
p1
.S'Giovanni'
p1
.S'Rost'
p1
.S'Erwin'
p1
.S'Panofsky'
p1
.S'Moses'
p1
.S'Margaret'
p1
.S'Jarman'
p1
.S'Hagood'
p1
.S'Clarence'
p1
.S'H.'
p1
.S'White'
p1
.S'Pierre'
p1
.S'Loti'
p1
.S'Carel'
p1
.S'van'
p1
.S'Mander'
p1
.S'Francis'
p1
.S'Karl'
p1
.S'Fischer'
p1
.S'Brook'
p1
.S'Swedenborg'
p1
.S'Cain'
p1
.S'Cain'
p1
.S'Pirkle'
p1
.S'Jones'
p1
.S'Moses'
p1
.S'Sybil'
p1
.S'Valentine'
p1
.S'Greene'
p1
.S'Pizarro'
p1
.S'Paul'
p1
.S'V'
.S'Francesco'
p1
.S'West'
p1
.S'Nach'
p1
.S'Unterdruckung'
p1
.S'Fuchs'
p1
.S'Relache'
p1
.S'Czerny'
p1
.S'Antonio'
p1
.S'Salieri'
p1
.S'Theophile'
p1
.S'Gautier'
p1
.S'Heinrich'
p1
.S'Heine'
p1
.S'Adolphe'
p1
.S'Adam'
p1
.S'Paul'
p1
.S'Whiteman'
p1
.S'Gesellen'
p1
.S'Mozart'
p1
.S'Haydn'
p1
.S'Housman'
p1
.S'Hopkins'
p1
.S'Yeats'
p1
.S'Stephens'
p1
.S'James'
p1
.S'Joyce'
p1
.S'Ludovic'
p1
.S'Halevy'
p1
.S'Meilhac'
p1
.S'Hector'
p1
.S'Hushabye'
p1
.S'Christopher'
p1
.S'Knowles'
p1
.S'Beni'
p1
.S'Mora'
p1
.S'Keats'
p1
.S'James'
p1
.S'Agee'
p1
.S'Richard'
p1
.S'Wagner'
p1
.S'Ottavio'
p1
.S'Gloria'
p1
.S'Egitto'
p1
.S'Jean'
p1
.S'Paul'
p1
.S'David'
p1
.S'Gott'
p1
.S'Peter'
p1
.S'Pears'
p1
.S'Ross'
p1
.S'Gorman'
p1
.S'Arianna'
p1
.S'Glinka'
p1
.S'Rossini'
p1
.S'Carl'
p1
.S'Czerny'
p1
.S'Ferdinando'
p1
.S'Paer'
p1
.S'Anton'
p1
.S'Reicha'
p1
.S'Christopher'
p1
.S'Knowles'
p1
.S'Robert'
p1
.S'Wilson'
p1
.S'Gabriel'
p1
.S'Faure'
p1
.S'Ernestine'
p1
.S'von'
p1
.S'Fricken'
p1
.S'Murray'
p1
.S'Annibale'
p1
.S'Pistacchio'
p1
.S'Enrico'
p1
.S'Ferruccio'
p1
.S'Busoni'
p1
.S'Jean-Claude'
p1
.S'Malgoire'
p1
.S'Jeanne'
p1
.S'Behrend'
p1
.S'Weber'
p1
.S'Ernani'
p1
.S'Norma'
p1
.S'Antonio'
p1
.S'Bazzini'
p1
.S'Haruki'
p1
.S'Murakami'
p1
.S'Michael'
p1
.S'Marissen'
p1
.S"L'Estro"
p1
.S'Armonico'
p1
.S'Giovanna'
p1
.S'Walter'
p1
.S'Mald'
p1
.S'Thorton'
p1
.S'Wilder'
p1
.S'Bayard'
p1
.S'Gaston'
p1
.S'?'
.S'John'
p1
.S'Adams'
p1
.S'Clorinda'
p1
.S'Laura'
p1
.S'George'
p1
.S'Benda'
p1
.S'Berlioz'
p1
.S'Daniel'
p1
.S'Steibelt'
p1
.S'Gazzaniga'
p1
.S'Don'
p1
.S'Rodrigue'
p1
.S'Ludvig'
p1
.S'Lindeman'
p1
.S'Duke'
p1
.S'Robert'
p1
.S'Oscar'
p1
.S'Pettiford'
p1
.S'Dizzy'
p1
.S'Gillespie'
p1
.S'Charlie'
p1
.S'Parker'
p1
.S'Bud'
p1
.S'Powell'
p1
.S'Max'
p1
.S'Roach'
p1
.S'Philipp'
p1
.S'Buchner'
p1
.S'Feuerbach'
p1
.S'Signore'
p1
.S'Regina'
p1
.S'Coeli'
p1
.S'Clorinda'
p1
.S'Joyce'
p1
.S'Robert'
p1
.S'Graves'
p1
.S'John'
p1
.S'Rivers'
p1
.S'Robert'
p1
.S'Browning'
p1
.S'Bach'
p1
.S'Nach'
p1
.S'dir'
p1
.S'Herr'
p1
.S'Mimi'
p1
.S'Jean'
p1
.S'Godebski'
p1
.S'William'
p1
.S'Macready'
p1
.S'Beckett'
p1
.S'Muzio'
p1
.S'Clementi'
p1
.S'Genoveva'
p1
.S'Giuseppi'
p1
.S'Sarti'
p1
.S'Rosalie'
p1
.S'Mayrhofer'
p1
.S'William'
p1
.S'Walton'
p1
.S'Catherine'
p1
.S'Peter'
p1
.S'the'
p1
.S'Great'
p1
.S'David'
p1
.S'Humphreys'
p1
.S'Philip'
p1
.S'Pickett'
p1
.S'Gary'
p1
.S'Karr'
p1
.S'Elliott'
p1
.S'Antokoletz'
p1
.S'Marcel'
p1
.S'Moyse'
p1
.S'Messaien'
p1
.S'Johann'
p1
.S'Strauss'
p1
.S'Samuel'
p1
.S'Morse'
p1
.S'Ezra'
p1
.S'Stiles'
p1
.S'Anthony'
p1
.S'Abbot'
p1
.S'Jerome'
p1
.S'Marcel'
p1
.S'Breuer'
p1
.S'Cicero'
p1
.S'Phyrne'
p1
.S'Nikolaus'
p1
.S'Hagnower'
p1
.S'Nathaniel'
p1
.S'Kahn'
p1
.S'John'
p1
.S'the'
p1
.S'Baptist'
p1
.S'Matthew'
p1
.S'Stephen'
p1
.S'Roger'
p1
.S'Bissi?re'
p1
.S'Jasper'
p1
.S'Johns'
p1
.S'Darius'
p1
.S'King'
p1
.S'Matthias'
p1
.S'Corvinus'
p1
.S'Raymond'
p1
.S'Duchamp-Villon'
p1
.S'Clarence'
p1
.S'White'
p1
.S'Imogen'
p1
.S'Cunningham'
p1
.S'Isamu'
p1
.S'Noguchi'
p1
.S'Paul'
p1
.S'V'
.S'Isamu'
p1
.S'Noguchi'
p1
.S'Danaide'
p1
.S'Lorenzo'
p1
.S'Ghiberti'
p1
.S'Nikias'
p1
.S'Lucrezia'
p1
.S'Donati'
p1
.S'James'
p1
.S'Madison'
p1
.S'Alexander'
p1
.S'Hamilton'
p1
.S'David'
p1
.S'Walsh'
p1
.S'David'
p1
.S'Bradford'
p1
.S'John'
p1
.S'Mitchell'
p1
.S'Meredith'
p1
.S'Nicholson'
p1
.S'Carolyn'
p1
.S'Wells'
p1
.S'John'
p1
.S'Ericsson'
p1
.S'Amos'
p1
.S'Durfee'
p1
.S'Robert'
p1
.S'Peel'
p1
.S'Weiser'
p1
.S'Payette'
p1
.S'Seth'
p1
.S'Warner'
p1
.S'John'
p1
.S'Stark'
p1
.S'Luther'
p1
.S'v.'
p1
.S'Borden'
p1
.S'Jackson'
p1
.S'William'
p1
.S'Mooney'
p1
.